((dp0
V\uff01
p1
I40
sV\u3002
p2
I38
sV\uff0c
p3
I39
sV\uff1f
p4
I41
sV1
p5
I29
sV0
p6
I28
sV3
p7
I31
sV2
p8
I30
sV5
p9
I33
sV4
p10
I32
sV7
p11
I35
sV6
p12
I34
sV9
p13
I37
sV8
p14
I36
sVE
p15
I0
sVU
p16
I1
sVa
p17
I2
sVc
p18
I4
sVb
p19
I3
sVe
p20
I6
sVd
p21
I5
sVg
p22
I8
sVf
p23
I7
sVi
p24
I10
sVh
p25
I9
sVk
p26
I12
sVj
p27
I11
sVm
p28
I14
sVl
p29
I13
sVo
p30
I16
sVn
p31
I15
sVq
p32
I18
sVp
p33
I17
sVs
p34
I20
sVr
p35
I19
sVu
p36
I22
sVt
p37
I21
sVw
p38
I24
sVv
p39
I23
sVy
p40
I26
sVx
p41
I25
sVz
p42
I27
s(dp43
I0
g15
sI1
g16
sI2
g17
sI3
g19
sI4
g18
sI5
g21
sI6
g20
sI7
g23
sI8
g22
sI9
g25
sI10
g24
sI11
g27
sI12
g26
sI13
g29
sI14
g28
sI15
g31
sI16
g30
sI17
g33
sI18
g32
sI19
g35
sI20
g34
sI21
g37
sI22
g36
sI23
g39
sI24
g38
sI25
g41
sI26
g40
sI27
g42
sI28
g6
sI29
g5
sI30
g8
sI31
g7
sI32
g10
sI33
g9
sI34
g12
sI35
g11
sI36
g14
sI37
g13
sI38
V\u3002
p44
sI39
V\uff0c
p45
sI40
V\uff01
p46
sI41
V\uff1f
p47
s(dp48
V\u8000
p49
I3
sV\u6302
p50
I1290
sV\u6000
p51
I3809
sV\u6d89
p52
I4
sV\u8c08
p53
I5
sV\u908b
p54
I1291
sV\u4f0a
p55
I6
sV\u968f
p56
I1292
sV\u8302
p57
I2560
sV\u5f95
p58
I1293
sV\u6297
p59
I1294
sV\u8116
p60
I3811
sV\u6599
p61
I3812
sV\u5785
p62
I1906
sV\u5146
p63
I4745
sV\u871a
p64
I3813
sV\u4e9f
p65
I7
sV\u6d1e
p66
I8
sV\u9020
p67
I1296
sV\u54a3
p68
I9
sV\u77a5
p69
I3815
sV\u7624
p70
I2563
sV\u9aa7
p71
I2564
sV\u64b0
p72
I4320
sV\u7f2a
p73
I10
sV\u622c
p74
I1297
sV\u86af
p75
I3817
sV\u6f5c
p76
I4022
sV\u7877
p77
I4253
sV\u6cb3
p78
I11
sV\u6b32
p79
I3818
sV\u4fb5
p80
I3819
sV\u4e34
p81
I12
sV\u72b7
p82
I13
sV\u7136
p83
I3820
sV\u75b9
p84
I2566
sV\u5438
p85
I14
sV\u573a
p86
I2567
sV\u5bbd
p87
I3823
sV\u5a3c
p88
I15
sV\u7ebf
p89
I16
sV\u6342
p90
I2568
sV\u53f2
p91
I4778
sV\u53cd
p92
I17
sV\u724c
p93
I18
sV\u96cf
p94
I19
sV\u620c
p95
I4451
sV\u59d1
p96
I20
sV\u9f39
p97
I4242
sV\u7b52
p98
I2569
sV\u5e54
p99
I1303
sV\u82d7
p100
I1304
sV\u5eb8
p101
I2979
sV\u87d1
p102
I3741
sV\u6458
p103
I3825
sV\u8bdd
p104
I3826
sV\u6edf
p105
I2571
sV\u8d5e
p106
I2572
sV\u51e1
p107
I1305
sV\u94e3
p108
I1306
sV\u5362
p109
I21
sV\u77e5
p110
I22
sV\u9664
p111
I23
sV\u5de9
p112
I1307
sV\u60eb
p113
I1308
sV\u5f6a
p114
I24
sV\u63ed
p115
I3827
sV\u626c
p116
I2576
sV\u9985
p117
I4986
sV\u70bc
p118
I4245
sV\u8870
p119
I1310
sV\u6cf3
p120
I1311
sV\u8e74
p121
I1312
sV\u5176
p122
I1313
sV\u95f9
p123
I25
sV\u9a7c
p124
I1314
sV\u5eff
p125
I26
sV\u6e14
p126
I4453
sV\u6101
p127
I2577
sV\u8403
p128
I3830
sV\u6382
p129
I3831
sV\u6684
p130
I1316
sV\u8986
p131
I27
sV\u96c5
p132
I3243
sV\u6c88
p133
I1317
sV\u8f8a
p134
I28
sV\u530d
p135
I3833
sV\u6e43
p136
I1714
sV\u776c
p137
I3400
sV\u9890
p138
I2578
sV\u89c2
p139
I4246
sV\u7f15
p140
I2579
sV\u5e94
p141
I29
sV\u6d45
p142
I4247
sV\u679a
p143
I2580
sV\u73ae
p144
I2174
sV\u6d9e
p145
I2581
sV\u5121
p146
I30
sV\u6ee4
p147
I2281
sV\u9047
p148
I3610
sV\u80c6
p149
I4203
sV\u5d29
p150
I31
sV\u9ca8
p151
I3836
sV\u5faa
p152
I3837
sV\u82ac
p153
I32
sV\u662f
p154
I2582
sV\u5a1c
p155
I4455
sV\u68b0
p156
I3839
sV\u8bb2
p157
I2583
sV\u6e9f
p158
I1295
sV\u7237
p159
I2584
sV\u51b6
p160
I33
sV\u9539
p161
I3842
sV\u54b8
p162
I2585
sV\u8d1e
p163
I3814
sV\u9abc
p164
I34
sV\u9e3f
p165
I1318
sV\u80c0
p166
I1319
sV\u6a47
p167
I1320
sV\u89c6
p168
I3843
sV\u4fca
p169
I1321
sV\u94a3
p170
I2562
sV\u5951
p171
I2586
sV\u78d0
p172
I2587
sV\u5bd2
p173
I1322
sV\u5f55
p174
I2588
sV\u9ed4
p175
I1323
sV\u7178
p176
I2777
sV\u8559
p177
I1324
sV\u64d8
p178
I1325
sV\u8fa3
p179
I3624
sV\u8dfb
p180
I3401
sV\u4e5f
p181
I1326
sV\u5624
p182
I3816
sV\u827a
p183
I4647
sV\u9765
p184
I1327
sV\u56e4
p185
I35
sV\u5a67
p186
I1328
sV\u79e6
p187
I3847
sV\u5d69
p188
I3848
sV\u5ce8
p189
I36
sV\u5fea
p190
I2592
sV\u636d
p191
I1330
sV\u62ec
p192
I37
sV\u666f
p193
I3849
sV\u65ee
p194
I2593
sV\u8bf2
p195
I1331
sV\u6ef4
p196
I38
sV\u6c28
p197
I3186
sV\u94f8
p198
I3851
sV\u987b
p199
I39
sV\u57fa
p200
I3852
sV\u5b7d
p201
I40
sV\u9e7f
p202
I41
sV\u5dfe
p203
I3853
sV\u4f2a
p204
I1910
sV\u6b87
p205
I2595
sV\u50e7
p206
I4229
sV\u6c89
p207
I42
sV\u918b
p208
I1332
sV\u4e0a
p209
I43
sV\u8fd1
p210
I3430
sV\u540e
p211
I44
sV\u7891
p212
I45
sV\u9910
p213
I46
sV\u6682
p214
I4033
sV\u5e95
p215
I1334
sV\u7f14
p216
I3855
sV\u6016
p217
I47
sV\u8499
p218
I48
sV\u6518
p219
I2597
sV\u552e
p220
I3187
sV\u8f9f
p221
I2598
sV\u7384
p222
I2122
sV\u90a1
p223
I49
sV\u75a3
p224
I1335
sV\u7830
p225
I1912
sV\u5ca9
p226
I2599
sV\u6ea5
p227
I4787
sV\u82ad
p228
I1336
sV\u5cb3
p229
I1913
sV\u67af
p230
I50
sV\u80dc
p231
I2984
sV\u88b1
p232
I1337
sV\u6930
p233
I1338
sV\u8db3
p234
I3856
sV\u4eb5
p235
I3857
sV\u4f34
p236
I51
sV\u73b7
p237
I52
sV\u9988
p238
I3405
sV\u7538
p239
I1339
sV\u79bb
p240
I53
sV\u7b3c
p241
I1341
sV\u7fbf
p242
I54
sV\u6e34
p243
I1298
sV\u80c1
p244
I2603
sV\u9175
p245
I3766
sV\u6846
p246
I2604
sV\u6cc9
p247
I1342
sV\u6d48
p248
I55
sV\u739f
p249
I2449
sV\u8e4a
p250
I1343
sV\u58d1
p251
I56
sV\u5173
p252
I3725
sV\u7ed5
p253
I1344
sV\u7f54
p254
I57
sV\u70ac
p255
I4538
sV\u69db
p256
I2606
sV\u665a
p257
I1345
sV\u8fdf
p258
I1346
sV\u6c5e
p259
I1347
sV\u90e1
p260
I3859
sV\u8c11
p261
I2123
sV\u75e3
p262
I2608
sV\u7262
p263
I1348
sV\u5764
p264
I2609
sV\u9897
p265
I3584
sV\u62ed
p266
I3861
sV\u67ef
p267
I1349
sV\u7a3c
p268
I1299
sV\u88f1
p269
I58
sV\u6df3
p270
I1350
sV\u4ef5
p271
I2611
sV\u8f74
p272
I1351
sV\u53f7
p273
I59
sV\u5076
p274
I1352
sV\u7578
p275
I2612
sV\u59fb
p276
I61
sV\u6d3e
p277
I4460
sV\u7afd
p278
I3864
sV\u5fff
p279
I62
sV\u8001
p280
I1354
sV\u8180
p281
I2614
sV\u8282
p282
I63
sV\u6784
p283
I1355
sV\u8b07
p284
I3865
sV\u6886
p285
I3866
sV\u6d88
p286
I1356
sV\u500d
p287
I3945
sV\u7a77
p288
I4180
sV\u520d
p289
I3867
sV\u538c
p290
I64
sV\u970f
p291
I3868
sV\u948e
p292
I65
sV\u5811
p293
I3869
sV\u5a92
p294
I2616
sV\u5e15
p295
I3871
sV\u7f94
p296
I1357
sV\u8317
p297
I66
sV\u8096
p298
I1358
sV\u891b
p299
I67
sV\u4fee
p300
I4252
sV\u4f1f
p301
I2618
sV\u8d39
p302
I4764
sV\u5021
p303
I68
sV\u71a0
p304
I69
sV\u9523
p305
I70
sV\u98a6
p306
I1360
sV\u6e1d
p307
I1520
sV\u612b
p308
I2619
sV\u7eaa
p309
I2620
sV\u63ac
p310
I3872
sV\u672f
p311
I2621
sV\u64ae
p312
I1361
sV\u829c
p313
I4164
sV\u8e35
p314
I3873
sV\u4f2f
p315
I4200
sV\u5439
p316
I1362
sV\u75b8
p317
I3874
sV\u7701
p318
I3438
sV\u7a3d
p319
I71
sV\u60cb
p320
I4462
sV\u7cbe
p321
I1363
sV\u7fc5
p322
I2248
sV\u81c0
p323
I1364
sV\u8543
p324
I2622
sV\u62c2
p325
I72
sV\u67c4
p326
I2623
sV\u6b47
p327
I1365
sV\u88c6
p328
I3876
sV\u6c49
p329
I3877
sV\u73cd
p330
I1300
sV\u514b
p331
I73
sV\u4eca
p332
I1366
sV\u524d
p333
I2625
sV\u53cc
p334
I3879
sV\u574f
p335
I74
sV\u524c
p336
I1301
sV\u5851
p337
I2626
sV\u7f79
p338
I1719
sV\u5ad2
p339
I1368
sV\u5e55
p340
I2627
sV\u7fd4
p341
I2628
sV\u80d6
p342
I75
sV\u6e4d
p343
I4980
sV\u4f5f
p344
I1369
sV\u6cde
p345
I3882
sV\u79d1
p346
I1302
sV\u9563
p347
I3883
sV\u5de8
p348
I77
sV\u7eea
p349
I3884
sV\u626d
p350
I1370
sV\u676f
p351
I3885
sV\u51a0
p352
I1359
sV\u8d73
p353
I78
sV\u5377
p354
I2629
sV\u99a8
p355
I4041
sV\u95f8
p356
I3886
sV\u56fa
p357
I3887
sV\u5bfc
p358
I1371
sV\u9f7f
p359
I79
sV\u8200
p360
I80
sV\u8102
p361
I2630
sV\u8404
p362
I81
sV\u8f89
p363
I3888
sV\u4e08
p364
I2631
sV\u518d
p365
I1372
sV\u500c
p366
I2632
sV\u948f
p367
I1373
sV\u970e
p368
I2633
sV\u8884
p369
I3129
sV\u9e93
p370
I1374
sV\u7802
p371
I2357
sV\u5c14
p372
I2634
sV\u6316
p373
I82
sV\u8c85
p374
I4255
sV\u90ae
p375
I3411
sV\u6c9f
p376
I1375
sV\u4f1e
p377
I1376
sV\u5220
p378
I3893
sV\u56a3
p379
I83
sV\u9122
p380
I3894
sV\u75a5
p381
I3895
sV\u78a7
p382
I1377
sV\u7b26
p383
I84
sV\u5bdd
p384
I1919
sV\u62ab
p385
I85
sV\u7206
p386
I2359
sV\u5fbd
p387
I3973
sV\u4eb3
p388
I1378
sV\u8eb2
p389
I2787
sV\u6db5
p390
I2636
sV\u6c34
p391
I1379
sV\u6708
p392
I4256
sV\u7638
p393
I1380
sV\u753a
p394
I3897
sV\u79bd
p395
I2638
sV\u8bef
p396
I3073
sV\u5cbf
p397
I1381
sV\u9f3e
p398
I86
sV\u83c1
p399
I2639
sV\u6240
p400
I87
sV\u65c5
p401
I1382
sV\u6444
p402
I88
sV\u6b46
p403
I2640
sV\u4e48
p404
I1383
sV\u52cb
p405
I2641
sV\u8d4a
p406
I1384
sV\u91cd
p407
I2643
sV\u704c
p408
I89
sV\u54cf
p409
I2644
sV\u574e
p410
I3899
sV\u7bd1
p411
I1386
sV\u5ed3
p412
I2645
sV\u6e0e
p413
I2360
sV\u6d3b
p414
I3413
sV\u6f5e
p415
I1387
sV\u5162
p416
I90
sV\u5464
p417
I2646
sV\u5b66
p418
I91
sV\u7fe9
p419
I92
sV\u9e3d
p420
I4044
sV\u81ed
p421
I93
sV\u606c
p422
I2647
sV\u8bf1
p423
I94
sV\u9012
p424
I2992
sV\u8df5
p425
I95
sV\u6c74
p426
I2648
sV\u70f7
p427
I1388
sV\u57f9
p428
I2649
sV\u9afb
p429
I2650
sV\u79fd
p430
I3901
sV\u987c
p431
I1389
sV\u8301
p432
I1390
sV\u6280
p433
I1391
sV\u7f6a
p434
I1309
sV\u8734
p435
I2913
sV\u6807
p436
I96
sV\u6b86
p437
I3902
sV\u6f09
p438
I2653
sV\u4e88
p439
I97
sV\u8d8a
p440
I98
sV\u740f
p441
I99
sV\u778e
p442
I3904
sV\u7b11
p443
I2654
sV\u9a90
p444
I2655
sV\u9992
p445
I100
sV\u5c94
p446
I101
sV\u8017
p447
I102
sV\u6396
p448
I2657
sV\u889c
p449
I3905
sV\u8c1f
p450
I103
sV\u8f9e
p451
I1393
sV\u5321
p452
I104
sV\u52a0
p453
I1394
sV\u51a2
p454
I3907
sV\u7525
p455
I1395
sV\u54a4
p456
I1396
sV\u814c
p457
I4557
sV\u5ba6
p458
I3908
sV\u5f29
p459
I105
sV\u7ea8
p460
I106
sV\u822b
p461
I1398
sV\u8b66
p462
I3294
sV\u8f91
p463
I4663
sV\u60ac
p464
I3909
sV\u6d35
p465
I107
sV\u9739
p466
I3911
sV\u7a3b
p467
I2659
sV\u8eba
p468
I3572
sV\u7c3f
p469
I2660
sV\u5e74
p470
I4467
sV\u951a
p471
I4523
sV\u6643
p472
I1399
sV\u61c2
p473
I108
sV\u6545
p474
I3914
sV\u84c4
p475
I1400
sV\u8bc6
p476
I3915
sV\u7709
p477
I3600
sV\u9176
p478
I3828
sV\u914d
p479
I109
sV\u60e7
p480
I3593
sV\u57ce
p481
I1401
sV\u9b51
p482
I110
sV\u75f9
p483
I3829
sV\u8272
p484
I4195
sV\u79d2
p485
I111
sV\u834f
p486
I3414
sV\u83d6
p487
I112
sV\u8759
p488
I1402
sV\u7ca5
p489
I4262
sV\u845b
p490
I4329
sV\u6c5f
p491
I113
sV\u8fde
p492
I114
sV\u5361
p493
I3918
sV\u72e0
p494
I1403
sV\u7663
p495
I115
sV\u7565
p496
I2664
sV\u94e4
p497
I2665
sV\u7f69
p498
I2666
sV\u6bfd
p499
I4468
sV\u626b
p500
I3921
sV\u816d
p501
I2667
sV\u60ec
p502
I116
sV\u87ee
p503
I1404
sV\u4e73
p504
I2668
sV\u8d75
p505
I2669
sV\u7eff
p506
I1315
sV\u5077
p507
I2670
sV\u53f6
p508
I3922
sV\u7779
p509
I1405
sV\u76f8
p510
I117
sV\u9a7b
p511
I118
sV\u95fa
p512
I1406
sV\u597d
p513
I119
sV\u5bab
p514
I2367
sV\u9c7f
p515
I120
sV\u5ffe
p516
I3923
sV\u8783
p517
I1407
sV\u6002
p518
I1408
sV\u6485
p519
I121
sV\u7080
p520
I1925
sV\u6e89
p521
I122
sV\u68ad
p522
I2996
sV\u738b
p523
I2673
sV\u8c0a
p524
I2674
sV\u508d
p525
I1410
sV\u5403
p526
I1926
sV\u758f
p527
I2675
sV\u560e
p528
I123
sV\u7a91
p529
I124
sV\u7812
p530
I1411
sV\u7c95
p531
I125
sV\u5d14
p532
I2677
sV\u6216
p533
I126
sV\u8718
p534
I1412
sV\u849c
p535
I4394
sV\u6d9f
p536
I1413
sV\u4e1e
p537
I1414
sV\u52a1
p538
I2679
sV\u62b1
p539
I2997
sV\u57a3
p540
I127
sV\u9022
p541
I3929
sV\u94a5
p542
I128
sV\u9524
p543
I1415
sV\u79a7
p544
I1416
sV\u7f28
p545
I2681
sV\u83ab
p546
I3931
sV\u7c2a
p547
I129
sV\u65af
p548
I130
sV\u6fb3
p549
I131
sV\u5510
p550
I3060
sV\u8d34
p551
I2682
sV\u51b7
p552
I1417
sV\u5236
p553
I2683
sV\u7738
p554
I1418
sV\u793c
p555
I1419
sV\u9e3e
p556
I132
sV\u8340
p557
I3934
sV\u8042
p558
I1420
sV\u64c5
p559
I1421
sV\u5eb9
p560
I4265
sV\u53cb
p561
I2685
sV\u714c
p562
I133
sV\u564e
p563
I3936
sV\u7b50
p564
I134
sV\u7852
p565
I2686
sV\u7cd5
p566
I1423
sV\u5a46
p567
I4555
sV\u66d9
p568
I135
sV\u64e2
p569
I4728
sV\u8bdb
p570
I1424
sV\u845a
p571
I2689
sV\u53bb
p572
I1727
sV\u8ddf
p573
I1425
sV\u4e5e
p574
I136
sV\u72e1
p575
I137
sV\u5360
p576
I2690
sV\u77e3
p577
I2691
sV\u9062
p578
I2692
sV\u54e5
p579
I1426
sV\u5564
p580
I2693
sV\u79e7
p581
I2694
sV\u7ee9
p582
I138
sV\u80ed
p583
I139
sV\u8c13
p584
I4471
sV\u65ef
p585
I1427
sV\u666e
p586
I140
sV\u6869
p587
I3416
sV\u6b92
p588
I4472
sV\u6cf5
p589
I3941
sV\u8d74
p590
I1428
sV\u96f9
p591
I141
sV\u5f15
p592
I3834
sV\u5bfb
p593
I142
sV\u763e
p594
I4266
sV\u997c
p595
I1429
sV\u6380
p596
I1430
sV\u95e8
p597
I2942
sV\u6405
p598
I2697
sV\u8584
p599
I2698
sV\u8e09
p600
I1431
sV\u4f88
p601
I143
sV\u900d
p602
I1433
sV\u518c
p603
I144
sV\u550f
p604
I1434
sV\u568e
p605
I2700
sV\u5a11
p606
I3948
sV\u7b90
p607
I1435
sV\u7f13
p608
I145
sV\u6041
p609
I3875
sV\u6296
p610
I2701
sV\u6619
p611
I1437
sV\u9cc5
p612
I3629
sV\u8df7
p613
I3790
sV\u699c
p614
I146
sV\u8d1f
p615
I147
sV\u5723
p616
I2702
sV\u90a2
p617
I1438
sV\u7425
p618
I1439
sV\u75a4
p619
I148
sV\u5927
p620
I2703
sV\u7aa6
p621
I2704
sV\u9e29
p622
I2705
sV\u5fa8
p623
I1440
sV\u832b
p624
I1441
sV\u7caa
p625
I2707
sV\u61ac
p626
I3951
sV\u652f
p627
I2708
sV\u66ae
p628
I1442
sV\u6a31
p629
I149
sV\u8bb0
p630
I150
sV\u6f33
p631
I2709
sV\u6c35
p632
I151
sV\u8db4
p633
I152
sV\u72b6
p634
I1443
sV\u5639
p635
I1444
sV\u76f9
p636
I3942
sV\u6bcb
p637
I4857
sV\u5ebe
p638
I153
sV\u6241
p639
I3952
sV\u83c0
p640
I1446
sV\u6743
p641
I1447
sV\u644a
p642
I3005
sV\u80a0
p643
I4474
sV\u8e49
p644
I154
sV\u8fc8
p645
I1448
sV\u6cca
p646
I155
sV\u904d
p647
I156
sV\u91cc
p648
I1449
sV\u754f
p649
I1450
sV\u76ce
p650
I157
sV\u5bd0
p651
I3954
sV\u5f53
p652
I158
sV\u53a2
p653
I3835
sV\u5c55
p654
I2712
sV\u7737
p655
I2788
sV\u62d6
p656
I3956
sV\u9e26
p657
I4102
sV\u6e4e
p658
I3632
sV\u9e44
p659
I4744
sV\u6ede
p660
I3957
sV\u7261
p661
I2713
sV\u53e0
p662
I159
sV\u7763
p663
I160
sV\u8de8
p664
I3269
sV\u55e4
p665
I161
sV\u751c
p666
I3771
sV\u9ae6
p667
I162
sV\u836b
p668
I163
sV\u5cea
p669
I2715
sV\u606d
p670
I1453
sV\u81ec
p671
I3958
sV\u86ee
p672
I1454
sV\u6a71
p673
I1455
sV\u8bf0
p674
I3959
sV\u4f73
p675
I2716
sV\u9177
p676
I164
sV\u66fe
p677
I3662
sV\u94fa
p678
I1456
sV\u987d
p679
I2718
sV\u9785
p680
I4450
sV\u7efe
p681
I2719
sV\u75ea
p682
I4251
sV\u6400
p683
I3961
sV\u8083
p684
I1457
sV\u8702
p685
I2720
sV\u8385
p686
I3962
sV\u8e87
p687
I1458
sV\u5600
p688
I3419
sV\u6808
p689
I3963
sV\u748b
p690
I2721
sV\u978d
p691
I3965
sV\u5d58
p692
I3553
sV\u62ac
p693
I3838
sV\u9893
p694
I1459
sV\u7b95
p695
I165
sV\u7a14
p696
I3967
sV\u6697
p697
I1461
sV\u6f58
p698
I4269
sV\u9f0e
p699
I2948
sV\u8018
p700
I1462
sV\u6c9b
p701
I1463
sV\u631a
p702
I166
sV\u4f9d
p703
I2722
sV\u4e1c
p704
I3968
sV\u8fce
p705
I4846
sV\u75a1
p706
I3969
sV\u5420
p707
I3970
sV\u50a3
p708
I167
sV\u53a5
p709
I2724
sV\u5224
p710
I3971
sV\u5ea7
p711
I168
sV\u59a9
p712
I2725
sV\u67ad
p713
I2726
sV\u82af
p714
I3972
sV\u715c
p715
I4865
sV\u94c1
p716
I3396
sV\u6c30
p717
I1465
sV\u68b3
p718
I169
sV\u6bb5
p719
I2727
sV\u55df
p720
I4866
sV\u56b7
p721
I1466
sV\u9536
p722
I170
sV\u71b9
p723
I2728
sV\u9038
p724
I2729
sV\u533a
p725
I2730
sV\u7fbd
p726
I2731
sV\u5e3c
p727
I171
sV\u7abf
p728
I172
sV\u6eb4
p729
I3840
sV\u65c1
p730
I1467
sV\u5267
p731
I1632
sV\u80c3
p732
I173
sV\u6742
p733
I2732
sV\u83c5
p734
I2733
sV\u6237
p735
I3211
sV\u4ec7
p736
I2734
sV\u6d46
p737
I2735
sV\u89c9
p738
I2736
sV\u6848
p739
I174
sV\u77cd
p740
I1468
sV\u764c
p741
I175
sV\u714e
p742
I2737
sV\u5c50
p743
I1470
sV\u98d3
p744
I176
sV\u8862
p745
I3636
sV\u6556
p746
I1471
sV\u8058
p747
I177
sV\u6cdb
p748
I2738
sV\u7f62
p749
I1771
sV\u4fdd
p750
I1472
sV\u82f7
p751
I3198
sV\u695e
p752
I1473
sV\u55e1
p753
I1474
sV\u62a5
p754
I4629
sV\u7762
p755
I1475
sV\u53e5
p756
I1476
sV\u7ee7
p757
I2741
sV\u6e10
p758
I4664
sV\u79e9
p759
I178
sV\u5b6a
p760
I179
sV\u866c
p761
I1477
sV\u62ef
p762
I1478
sV\u816e
p763
I3979
sV\u6df1
p764
I3980
sV\u6c70
p765
I2743
sV\u88f3
p766
I2744
sV\u8f72
p767
I3981
sV\u8bf5
p768
I180
sV\u8350
p769
I4860
sV\u96f7
p770
I2745
sV\u88e4
p771
I3764
sV\u51f9
p772
I2746
sV\u7078
p773
I2747
sV\u5cfb
p774
I181
sV\u5ffd
p775
I2748
sV\u731d
p776
I2268
sV\u7aff
p777
I1480
sV\u8003
p778
I3984
sV\u8782
p779
I182
sV\u8305
p780
I1481
sV\u6284
p781
I1482
sV\u4e07
p782
I1483
sV\u6b8a
p783
I3985
sV\u970d
p784
I1484
sV\u5c90
p785
I183
sV\u53c2
p786
I1933
sV\u5669
p787
I4295
sV\u5218
p788
I4666
sV\u9984
p789
I3792
sV\u8098
p790
I3986
sV\u8c1b
p791
I184
sV\u80af
p792
I4063
sV\u6e9c
p793
I185
sV\u6a1f
p794
I3988
sV\u9521
p795
I2750
sV\u94a0
p796
I3989
sV\u57a2
p797
I3990
sV\u7325
p798
I1485
sV\u81ba
p799
I3447
sV\u5e27
p800
I2751
sV\u7da6
p801
I2752
sV\u5929
p802
I186
sV\u58a8
p803
I1486
sV\u59c6
p804
I1935
sV\u672d
p805
I187
sV\u97f3
p806
I3637
sV\u8012
p807
I3619
sV\u6d31
p808
I188
sV\u789f
p809
I2149
sV\u67da
p810
I3845
sV\u90b8
p811
I189
sV\u975b
p812
I5062
sV\u73ba
p813
I1487
sV\u804b
p814
I3215
sV\u7a3f
p815
I2753
sV\u59be
p816
I190
sV\u64c0
p817
I2754
sV\u6043
p818
I1489
sV\u6345
p819
I3994
sV\u62c4
p820
I2756
sV\u8e47
p821
I2757
sV\u6dc6
p822
I191
sV\u5a76
p823
I1737
sV\u574d
p824
I2758
sV\u96cc
p825
I1490
sV\u71ce
p826
I192
sV\u5fd2
p827
I1491
sV\u5b55
p828
I2759
sV\u864f
p829
I3217
sV\u6657
p830
I193
sV\u6f78
p831
I3639
sV\u60d8
p832
I1492
sV\u6c5b
p833
I194
sV\u4f5d
p834
I4000
sV\u5561
p835
I4001
sV\u94e0
p836
I2760
sV\u9063
p837
I4002
sV\u77e2
p838
I4003
sV\u954c
p839
I4107
sV\u52e4
p840
I195
sV\u5de6
p841
I2761
sV\u901a
p842
I4702
sV\u78e8
p843
I1493
sV\u846b
p844
I196
sV\u7bea
p845
I4004
sV\u676d
p846
I1494
sV\u826f
p847
I197
sV\u6cf0
p848
I198
sV\u8bd2
p849
I4481
sV\u9677
p850
I199
sV\u5179
p851
I200
sV\u7f55
p852
I3844
sV\u7c7b
p853
I4007
sV\u867e
p854
I4870
sV\u7efc
p855
I201
sV\u9a7f
p856
I202
sV\u7ed4
p857
I2589
sV\u6500
p858
I4009
sV\u6602
p859
I1495
sV\u8304
p860
I203
sV\u7b80
p861
I2379
sV\u5f57
p862
I2473
sV\u558b
p863
I4010
sV\u6a0a
p864
I1496
sV\u968d
p865
I4011
sV\u938f
p866
I1497
sV\u742c
p867
I2152
sV\u7c91
p868
I204
sV\u6559
p869
I2590
sV\u5993
p870
I4013
sV\u7a95
p871
I205
sV\u7b14
p872
I4014
sV\u6797
p873
I1499
sV\u6d9b
p874
I1500
sV\u621a
p875
I206
sV\u5520
p876
I4015
sV\u7622
p877
I207
sV\u7fa7
p878
I1501
sV\u58a9
p879
I2765
sV\u5b5d
p880
I4483
sV\u672c
p881
I1502
sV\u6cb1
p882
I2766
sV\u8d30
p883
I2767
sV\u6587
p884
I3147
sV\u4e32
p885
I2768
sV\u6ed3
p886
I4529
sV\u7436
p887
I4017
sV\u90b9
p888
I1503
sV\u523a
p889
I2770
sV\u9ebd
p890
I1504
sV\u5f3c
p891
I208
sV\u5bbf
p892
I1505
sV\u783e
p893
I4018
sV\u81c3
p894
I209
sV\u62c5
p895
I1506
sV\u8fc7
p896
I210
sV\u8c46
p897
I1507
sV\u68c9
p898
I1508
sV\u96cd
p899
I2772
sV\u73cf
p900
I4019
sV\u504e
p901
I4020
sV\u6e7f
p902
I4487
sV\u59d3
p903
I2773
sV\u7b54
p904
I211
sV\u7238
p905
I1539
sV\u8e0a
p906
I2596
sV\u7765
p907
I2591
sV\u8ddb
p908
I1510
sV\u4edd
p909
I1511
sV\u4f5c
p910
I2774
sV\u8bdf
p911
I1512
sV\u94e1
p912
I4023
sV\u5662
p913
I212
sV\u5364
p914
I2776
sV\u5fe7
p915
I4024
sV\u9968
p916
I213
sV\u5a6a
p917
I214
sV\u86ed
p918
I215
sV\u6cf1
p919
I4026
sV\u8d70
p920
I1513
sV\u8e72
p921
I4027
sV\u7476
p922
I216
sV\u70f9
p923
I4028
sV\u9178
p924
I1514
sV\u727a
p925
I217
sV\u7efd
p926
I4030
sV\u5f7c
p927
I4031
sV\u5bff
p928
I218
sV\u587e
p929
I1515
sV\u6401
p930
I2778
sV\u903c
p931
I2956
sV\u8682
p932
I219
sV\u8205
p933
I1516
sV\u9640
p934
I4671
sV\u6809
p935
I2779
sV\u6988
p936
I1517
sV\u950b
p937
I4034
sV\u8a8a
p938
I220
sV\u778c
p939
I1518
sV\u708e
p940
I4035
sV\u5c11
p941
I4036
sV\u5a9a
p942
I4971
sV\u9e92
p943
I221
sV\u7b94
p944
I1519
sV\u8717
p945
I222
sV\u8019
p946
I2780
sV\u8198
p947
I4038
sV\u6d1b
p948
I4039
sV\u629a
p949
I2781
sV\u4e1d
p950
I223
sV\u6f9c
p951
I224
sV\u5f27
p952
I2783
sV\u59a8
p953
I1521
sV\u852b
p954
I1522
sV\u662d
p955
I225
sV\u832f
p956
I1523
sV\u80ae
p957
I2786
sV\u8c31
p958
I4042
sV\u4eb2
p959
I226
sV\u6a35
p960
I227
sV\u8bb4
p961
I228
sV\u53ca
p962
I2433
sV\u9b54
p963
I4021
sV\u81ca
p964
I4405
sV\u5e3d
p965
I1524
sV\u78be
p966
I1525
sV\u6441
p967
I4045
sV\u63c4
p968
I2789
sV\u6f47
p969
I1526
sV\u6849
p970
I4046
sV\u89c8
p971
I1527
sV\u51f6
p972
I3850
sV\u964d
p973
I229
sV\u534f
p974
I230
sV\u90ce
p975
I4047
sV\u5c51
p976
I2790
sV\u7ed2
p977
I231
sV\u5a55
p978
I2791
sV\u8757
p979
I4048
sV\u6059
p980
I2792
sV\u8d5b
p981
I4049
sV\u62da
p982
I4050
sV\u4e5d
p983
I4051
sV\u8fdc
p984
I2793
sV\u5409
p985
I4802
sV\u6fd1
p986
I2157
sV\u9163
p987
I4052
sV\u56e2
p988
I2794
sV\u5265
p989
I4053
sV\u53e4
p990
I232
sV\u5ce6
p991
I2795
sV\u59e8
p992
I233
sV\u67ec
p993
I234
sV\u836f
p994
I235
sV\u60ee
p995
I2796
sV\u62bc
p996
I4766
sV\u4ef2
p997
I4054
sV\u5e7f
p998
I2594
sV\u5777
p999
I2797
sV\u94f6
p1000
I1528
sV\u51f8
p1001
I1529
sV\u52fa
p1002
I4056
sV\u5e7d
p1003
I236
sV\u7ffc
p1004
I237
sV\u8854
p1005
I4672
sV\u6781
p1006
I238
sV\u6600
p1007
I4057
sV\u8004
p1008
I239
sV\u89ce
p1009
I4924
sV\u6f06
p1010
I1530
sV\u6b89
p1011
I240
sV\u968b
p1012
I1531
sV\u540c
p1013
I2800
sV\u730e
p1014
I1532
sV\u5e10
p1015
I2801
sV\u7814
p1016
I4058
sV\u6258
p1017
I4070
sV\u6218
p1018
I2802
sV\u4e9b
p1019
I241
sV\u611a
p1020
I242
sV\u6d9d
p1021
I4060
sV\u8c1c
p1022
I1533
sV\u60bc
p1023
I4845
sV\u5704
p1024
I3228
sV\u7620
p1025
I2803
sV\u52a3
p1026
I243
sV\u5522
p1027
I1534
sV\u51a5
p1028
I2804
sV\u5f26
p1029
I1535
sV\u7ba9
p1030
I4062
sV\u592a
p1031
I1536
sV\u65ad
p1032
I2805
sV\u642c
p1033
I1537
sV\u60af
p1034
I244
sV\u8fb1
p1035
I1538
sV\u4e30
p1036
I245
sV\u8d32
p1037
I246
sV\u7736
p1038
I4065
sV\u5238
p1039
I247
sV\u9ebb
p1040
I4066
sV\u5c3c
p1041
I248
sV\u9f13
p1042
I3949
sV\u67c1
p1043
I1540
sV\u6e0a
p1044
I1333
sV\u4f46
p1045
I4067
sV\u8bc9
p1046
I2806
sV\u8a48
p1047
I4068
sV\u75cd
p1048
I1541
sV\u62e3
p1049
I3435
sV\u50cf
p1050
I2807
sV\u534e
p1051
I4069
sV\u5fd1
p1052
I249
sV\u8e39
p1053
I4882
sV\u9ad3
p1054
I250
sV\u5854
p1055
I1542
sV\u6756
p1056
I1543
sV\u8258
p1057
I251
sV\u732e
p1058
I4669
sV\u8ddd
p1059
I4071
sV\u8f76
p1060
I5006
sV\u6064
p1061
I4674
sV\u9891
p1062
I3854
sV\u8c26
p1063
I4630
sV\u71e5
p1064
I252
sV\u5f66
p1065
I253
sV\u996a
p1066
I2808
sV\u65ed
p1067
I4072
sV\u846c
p1068
I1544
sV\u60ef
p1069
I1545
sV\u636e
p1070
I254
sV\u4ff1
p1071
I2810
sV\u4e70
p1072
I4073
sV\u5386
p1073
I3599
sV\u74f7
p1074
I1546
sV\u9776
p1075
I4074
sV\u53f9
p1076
I2811
sV\u7efb
p1077
I1547
sV\u9c7c
p1078
I1548
sV\u7b7e
p1079
I255
sV\u8680
p1080
I2812
sV\u6084
p1081
I1549
sV\u8f86
p1082
I256
sV\u548c
p1083
I257
sV\u500f
p1084
I1550
sV\u5f11
p1085
I4076
sV\u5e90
p1086
I258
sV\u5a13
p1087
I1551
sV\u88c2
p1088
I4289
sV\u5915
p1089
I4077
sV\u80ef
p1090
I2809
sV\u77b0
p1091
I5052
sV\u6298
p1092
I259
sV\u4e1b
p1093
I2813
sV\u95f4
p1094
I4888
sV\u8d1d
p1095
I2814
sV\u6dc4
p1096
I3019
sV\u7ff1
p1097
I4676
sV\u961a
p1098
I4493
sV\u66e6
p1099
I5066
sV\u5c27
p1100
I2815
sV\u9e70
p1101
I2167
sV\u9aa8
p1102
I4079
sV\u59aa
p1103
I4080
sV\u64ac
p1104
I4081
sV\u602f
p1105
I2816
sV\u63ae
p1106
I1552
sV\u6f31
p1107
I260
sV\u6db2
p1108
I1553
sV\u9f9f
p1109
I3234
sV\u5339
p1110
I1554
sV\u72b8
p1111
I4082
sV\u7b49
p1112
I4693
sV\u91ba
p1113
I2817
sV\u5d3d
p1114
I1555
sV\u7cbc
p1115
I4083
sV\u5bbe
p1116
I261
sV\u86c0
p1117
I1556
sV\u94ca
p1118
I4884
sV\u80c4
p1119
I1557
sV\u6c47
p1120
I1558
sV\u6b49
p1121
I4084
sV\u964b
p1122
I2818
sV\u89ca
p1123
I4085
sV\u954d
p1124
I262
sV\u54cc
p1125
I4086
sV\u504f
p1126
I263
sV\u7f51
p1127
I4087
sV\u9955
p1128
I264
sV\u8d4f
p1129
I3652
sV\u8457
p1130
I4088
sV\u62d8
p1131
I1560
sV\u6e5b
p1132
I265
sV\u9ece
p1133
I4290
sV\u8d5d
p1134
I1561
sV\u8bde
p1135
I266
sV\u9761
p1136
I1562
sV\u56e0
p1137
I267
sV\u75e2
p1138
I4090
sV\u9165
p1139
I1563
sV\u70e4
p1140
I1564
sV\u63d0
p1141
I3653
sV\u5b69
p1142
I4092
sV\u866b
p1143
I268
sV\u84ec
p1144
I4093
sV\u606f
p1145
I4094
sV\u8f71
p1146
I2822
sV\u4ef0
p1147
I1565
sV\u88f4
p1148
I4095
sV\u5477
p1149
I2823
sV\u97f6
p1150
I1566
sV\u72f8
p1151
I269
sV\u5e7b
p1152
I2825
sV\u9075
p1153
I3805
sV\u987f
p1154
I270
sV\u75d4
p1155
I3024
sV\u8681
p1156
I4097
sV\u8700
p1157
I271
sV\u6402
p1158
I1567
sV\u8a89
p1159
I4099
sV\u978b
p1160
I1568
sV\u9f88
p1161
I3332
sV\u950c
p1162
I272
sV\u718f
p1163
I2826
sV\u520e
p1164
I273
sV\u4e59
p1165
I4293
sV\u5b93
p1166
I4101
sV\u6bcf
p1167
I4952
sV\u5914
p1168
I2827
sV\u6597
p1169
I1569
sV\u7fd8
p1170
I2393
sV\u8299
p1171
I274
sV\u6e58
p1172
I4228
sV\u4f9b
p1173
I275
sV\u7720
p1174
I2829
sV\u7422
p1175
I276
sV\u50a5
p1176
I2830
sV\u5e26
p1177
I1570
sV\u7b28
p1178
I2831
sV\u67ab
p1179
I277
sV\u582a
p1180
I1571
sV\u64ad
p1181
I2832
sV\u852c
p1182
I2833
sV\u622e
p1183
I4103
sV\u4f30
p1184
I278
sV\u62dc
p1185
I1631
sV\u8c32
p1186
I279
sV\u68b5
p1187
I2834
sV\u8934
p1188
I2835
sV\u55b7
p1189
I1572
sV\u9636
p1190
I280
sV\u72b9
p1191
I2837
sV\u5eb5
p1192
I4497
sV\u503a
p1193
I2838
sV\u7cbd
p1194
I2839
sV\u6740
p1195
I281
sV\u60c5
p1196
I1573
sV\u83b7
p1197
I4498
sV\u6dc7
p1198
I4106
sV\u57cb
p1199
I2840
sV\u54cd
p1200
I282
sV\u754c
p1201
I283
sV\u91cf
p1202
I284
sV\u7ed1
p1203
I1574
sV\u7f50
p1204
I285
sV\u5bd3
p1205
I2843
sV\u58d5
p1206
I286
sV\u5954
p1207
I1576
sV\u65d7
p1208
I2845
sV\u6656
p1209
I1577
sV\u62d9
p1210
I287
sV\u8fdb
p1211
I1578
sV\u805a
p1212
I2846
sV\u59bb
p1213
I1340
sV\u69df
p1214
I2847
sV\u8de4
p1215
I3659
sV\u56e1
p1216
I1579
sV\u9760
p1217
I288
sV\u768b
p1218
I2799
sV\u5462
p1219
I289
sV\u5496
p1220
I4653
sV\u7164
p1221
I4112
sV\u5de7
p1222
I4113
sV\u9e66
p1223
I2849
sV\u5ae9
p1224
I1580
sV\u62e6
p1225
I4887
sV\u656c
p1226
I2850
sV\u626e
p1227
I290
sV\u8f70
p1228
I1581
sV\u6c72
p1229
I291
sV\u749e
p1230
I3567
sV\u55f7
p1231
I292
sV\u5676
p1232
I1582
sV\u545b
p1233
I2435
sV\u5378
p1234
I4118
sV\u5ffb
p1235
I293
sV\u5c3e
p1236
I2602
sV\u59ff
p1237
I294
sV\u9a7e
p1238
I4119
sV\u90c1
p1239
I3242
sV\u8303
p1240
I4120
sV\u8482
p1241
I295
sV\u8005
p1242
I1584
sV\u4e86
p1243
I2853
sV\u770b
p1244
I296
sV\u540d
p1245
I4123
sV\u9aa0
p1246
I4238
sV\u5f90
p1247
I297
sV\u9b13
p1248
I4124
sV\u7c92
p1249
I4125
sV\u5815
p1250
I4126
sV\u8517
p1251
I298
sV\u6696
p1252
I2854
sV\u6398
p1253
I299
sV\u809a
p1254
I1585
sV\u77a0
p1255
I300
sV\u5323
p1256
I2856
sV\u94a2
p1257
I1587
sV\u51a4
p1258
I1588
sV\u5d27
p1259
I2857
sV\u9ea6
p1260
I1589
sV\u5a29
p1261
I301
sV\u672b
p1262
I2859
sV\u642d
p1263
I302
sV\u5773
p1264
I3661
sV\u812f
p1265
I1590
sV\u5c9c
p1266
I2173
sV\u8e31
p1267
I4131
sV\u8fb0
p1268
I303
sV\u69b4
p1269
I4132
sV\u9537
p1270
I1591
sV\u96b6
p1271
I2862
sV\u7239
p1272
I304
sV\u6868
p1273
I4604
sV\u9f3b
p1274
I1593
sV\u90ba
p1275
I2863
sV\u5c3d
p1276
I1594
sV\u51cb
p1277
I2605
sV\u5abe
p1278
I305
sV\u6641
p1279
I4133
sV\u87c0
p1280
I1595
sV\u8343
p1281
I2864
sV\u64c2
p1282
I306
sS'E'
p1283
I0
sV\u7977
p1284
I4297
sV\u6d47
p1285
I1596
sV\u4ec6
p1286
I1597
sV\u8bc8
p1287
I1598
sV\u9e51
p1288
I307
sV\u5fd0
p1289
I4134
sV\u5cd2
p1290
I1599
sV\u7855
p1291
I4135
sV\u59d4
p1292
I4136
sV\u5ff8
p1293
I1751
sV\u83d8
p1294
I2865
sV\u4f5b
p1295
I1600
sV\u80da
p1296
I308
sV\u6c5d
p1297
I2866
sV\u637b
p1298
I4891
sV\u900f
p1299
I4075
sV\u9661
p1300
I1601
sV\u57e0
p1301
I309
sV\u94e2
p1302
I310
sV\u9065
p1303
I1602
sV\u51e4
p1304
I311
sV\u8f8d
p1305
I4895
sV\u5be8
p1306
I312
sV\u846d
p1307
I2867
sV\u65ec
p1308
I313
sV\u62ee
p1309
I2868
sV\u4e71
p1310
I314
sV\u8ff0
p1311
I4141
sV\u757f
p1312
I4298
sV\u5577
p1313
I2869
sV\u96f6
p1314
I1603
sV\u7279
p1315
I1604
sV\u53f8
p1316
I1605
sV\u5f7b
p1317
I2870
sV\u86fe
p1318
I2400
sV\u7c7d
p1319
I1606
sV\u997f
p1320
I315
sV\u8981
p1321
I4142
sV\u6800
p1322
I4143
sV\u6c83
p1323
I2871
sV\u82ab
p1324
I3896
sV\u8f85
p1325
I4144
sV\u8106
p1326
I2872
sV\u952d
p1327
I4686
sV\u7b8d
p1328
I316
sV\u70b9
p1329
I2769
sV\u5e8f
p1330
I4145
sV\u5d0e
p1331
I317
sV\u9010
p1332
I318
sV\u9493
p1333
I1607
sV\u9614
p1334
I319
sV\u809b
p1335
I2873
sV\u4f1a
p1336
I1608
sV\u821c
p1337
I1609
sV\u5ad4
p1338
I3998
sV\u865a
p1339
I2607
sV\u7126
p1340
I320
sV\u7428
p1341
I2874
sV\u88ab
p1342
I4147
sV\u8bad
p1343
I1610
sV\u6eaf
p1344
I321
sV\u8d2e
p1345
I322
sV\u4faa
p1346
I4476
sV\u9189
p1347
I4894
sV\u6332
p1348
I4150
sV\u9ab7
p1349
I4151
sV\u5b70
p1350
I4564
sV\u5c38
p1351
I323
sV\u50bb
p1352
I1612
sV\u5f3a
p1353
I2875
sV\u9c81
p1354
I4936
sV\u76bf
p1355
I324
sV\u553e
p1356
I2876
sV\u89c1
p1357
I2877
sV\u6840
p1358
I325
sV\u8fc5
p1359
I2878
sV\u6e44
p1360
I326
sV\u82c7
p1361
I327
sV\u8146
p1362
I1613
sV\u85c9
p1363
I2879
sV\u6448
p1364
I328
sV\u78cb
p1365
I4157
sV\u55e3
p1366
I3860
sV\u9ecf
p1367
I329
sV\u51d1
p1368
I330
sV\u9050
p1369
I4159
sV\u904f
p1370
I2819
sV\u7352
p1371
I2881
sV\u5654
p1372
I1614
sV\u675c
p1373
I4343
sV\u9531
p1374
I4922
sV\u6dd9
p1375
I331
sV\u4f5a
p1376
I332
sV\u86df
p1377
I1615
sV\u655e
p1378
I1616
sV\u5b62
p1379
I333
sV\u9e64
p1380
I334
sV\u7166
p1381
I1617
sV\u95e9
p1382
I4161
sV\u5468
p1383
I2882
sV\u6e8f
p1384
I3499
sV\u576a
p1385
I335
sV\u8bed
p1386
I336
sV\u6d6e
p1387
I337
sV\u6070
p1388
I2883
sV\u8247
p1389
I2895
sV\u6674
p1390
I2884
sV\u5976
p1391
I1618
sV\u50fb
p1392
I338
sV\u53fd
p1393
I2885
sV\u56ff
p1394
I339
sV\u6901
p1395
I2886
sV\u8c03
p1396
I4163
sV\u7686
p1397
I5044
sV\u9a8c
p1398
I2887
sV\u5999
p1399
I3666
sV\u5413
p1400
I1619
sV\u9694
p1401
I2888
sV\u759d
p1402
I4990
sV\u6d19
p1403
I1620
sV\u6273
p1404
I4409
sV\u631d
p1405
I1621
sV\u949b
p1406
I3667
sV\u661f
p1407
I4165
sV\u68f1
p1408
I3862
sV\u5ba2
p1409
I4167
sV\u5f25
p1410
I340
sV\u7ea4
p1411
I341
sV\u7529
p1412
I1623
sV\u74a8
p1413
I342
sV\u77aa
p1414
I2889
sV\u8df3
p1415
I2610
sV\u8e2f
p1416
I1625
sV\u6dae
p1417
I1626
sV\u8131
p1418
I4170
sV\u996d
p1419
I3615
sV\u83b2
p1420
I2891
sV\u6735
p1421
I343
sV\u729f
p1422
I2408
sV\u7a37
p1423
I2892
sV\u56fe
p1424
I4299
sV\u9cb8
p1425
I344
sV\u903b
p1426
I1627
sV\u53e3
p1427
I4111
sV\u963f
p1428
I1628
sV\u75be
p1429
I1629
sV\u8941
p1430
I345
sV\u68c0
p1431
I2894
sV\u90dc
p1432
I3614
sV\u6bc2
p1433
I346
sV\u4ec4
p1434
I4174
sV\u6247
p1435
I1630
sV\u81c6
p1436
I4175
sV\u8549
p1437
I347
sV\u7076
p1438
I60
sV\u9b4d
p1439
I348
sV\u5acc
p1440
I4176
sV\u9e4f
p1441
I2896
sV\u5151
p1442
I2897
sV\u5453
p1443
I349
sV\u704f
p1444
I1559
sV\u5578
p1445
I3863
sV\u6d59
p1446
I2899
sV\u4fda
p1447
I2900
sV\u79fb
p1448
I1353
sV\u665f
p1449
I350
sV\u7267
p1450
I351
sV\u8043
p1451
I2755
sV\u54e8
p1452
I352
sV\u886b
p1453
I353
sV\u97ea
p1454
I354
sV\u6dee
p1455
I2902
sV\u8171
p1456
I2903
sV\u60f0
p1457
I355
sV\u8473
p1458
I356
sV\u83f2
p1459
I1633
sV\u6775
p1460
I1634
sV\u66f4
p1461
I357
sV\u9a77
p1462
I358
sV\u5955
p1463
I2820
sV\u507b
p1464
I2905
sV\u72fc
p1465
I359
sV\u8c4c
p1466
I4998
sV\u95fe
p1467
I1635
sV\u6881
p1468
I360
sV\u6001
p1469
I2613
sV\u532a
p1470
I1758
sV\u6e85
p1471
I361
sV\u54a6
p1472
I4353
sV\u6387
p1473
I2906
sV\u6006
p1474
I1636
sV\u998b
p1475
I1637
sV\u660a
p1476
I1638
sV\u7a8d
p1477
I362
sV\u9091
p1478
I4183
sV\u5212
p1479
I363
sV\u51c7
p1480
I3630
sV\u6816
p1481
I364
sV\u6c99
p1482
I4184
sV\u819b
p1483
I2908
sV\u6e1a
p1484
I365
sV\u829d
p1485
I366
sV\u831c
p1486
I1640
sV\u641e
p1487
I367
sV\u55b1
p1488
I4901
sV\u5ea5
p1489
I2909
sV\u7f24
p1490
I2910
sV\u5026
p1491
I1641
sV\u94a9
p1492
I368
sV\u9528
p1493
I1642
sV\u69ab
p1494
I369
sV\u762a
p1495
I370
sV\u4faf
p1496
I1643
sV\u6c2e
p1497
I4188
sV\u60b1
p1498
I2912
sV\u6734
p1499
I1644
sV\u7cb9
p1500
I2914
sV\u64b8
p1501
I4479
sV\u51bb
p1502
I1645
sV\u77bf
p1503
I371
sV\u543e
p1504
I2915
sV\u88c1
p1505
I2916
sV\u7761
p1506
I2821
sV\u8dc3
p1507
I372
sV\u4ec5
p1508
I373
sV\u5eb7
p1509
I1760
sV\u83c7
p1510
I374
sV\u8046
p1511
I1646
sV\u84c9
p1512
I2917
sV\u6548
p1513
I375
sV\u59cb
p1514
I2918
sV\u5fcf
p1515
I2919
sV\u5c4e
p1516
I4190
sV\u90d1
p1517
I2920
sV\u9150
p1518
I4191
sV\u55d3
p1519
I2921
sV\u7252
p1520
I2922
sV\u96d5
p1521
I2923
sV\u8bd7
p1522
I1647
sV\u8d58
p1523
I376
sV\u548e
p1524
I2615
sV\u94bb
p1525
I4305
sV\u4f69
p1526
I4544
sV\u645e
p1527
I1648
sV\u5960
p1528
I2925
sV\u5a62
p1529
I377
sV\u7ee5
p1530
I378
sV\u5f64
p1531
I2926
sV\u9980
p1532
I3561
sV\u54e9
p1533
I1649
sV\u4e8f
p1534
I4736
sV\u566a
p1535
I379
sV\u8b6c
p1536
I1650
sV\u4fef
p1537
I380
sV\u80f1
p1538
I381
sV\u8170
p1539
I1652
sV\u5693
p1540
I4218
sV\u7a92
p1541
I3870
sV\u8774
p1542
I1653
sV\u7bf7
p1543
I1654
sV\u9876
p1544
I4196
sV\u51fb
p1545
I382
sV\u5e7a
p1546
I1655
sV\u77ff
p1547
I1656
sV\u747e
p1548
I383
sV\u94e9
p1549
I4194
sV\u6e05
p1550
I2929
sV\u4f84
p1551
I384
sV\u6307
p1552
I385
sV\u8086
p1553
I386
sV\u868a
p1554
I387
sV\u7a0d
p1555
I2931
sV\u5b8c
p1556
I388
sV\u5f0f
p1557
I1658
sV\u563f
p1558
I4172
sV\u9011
p1559
I1659
sV\u9190
p1560
I2933
sV\u7292
p1561
I4197
sV\u8896
p1562
I1660
sV\u6c19
p1563
I1661
sV\u8bc5
p1564
I3035
sV\u7ea7
p1565
I1464
sV\u8d48
p1566
I3858
sV\u649e
p1567
I2935
sV\u5821
p1568
I389
sV\u9e25
p1569
I2936
sV\u7fa4
p1570
I390
sV\u90a6
p1571
I1662
sV\u5429
p1572
I391
sV\u6f2f
p1573
I2937
sV\u6cae
p1574
I1663
sV\u91c9
p1575
I3672
sV\u5df2
p1576
I4699
sV\u6635
p1577
I392
sV\uff1f
p1578
I4510
sV\u5b37
p1579
I4201
sV\u5c39
p1580
I1664
sV\u7eba
p1581
I1665
sV\u723d
p1582
I393
sV\u94be
p1583
I2938
sV\u6d43
p1584
I1667
sV\u4e45
p1585
I2940
sV\u8fc4
p1586
I1668
sV\u60c6
p1587
I394
sV\u94dd
p1588
I5035
sV\u60ed
p1589
I3940
sV\u594b
p1590
I395
sV\u77f6
p1591
I2824
sV\u5bcc
p1592
I4205
sV\u9e4c
p1593
I4307
sV\u9051
p1594
I396
sV\u52d2
p1595
I1669
sV\u9655
p1596
I397
sV\u57d4
p1597
I4206
sV\u6dd8
p1598
I1670
sV\u6eda
p1599
I4207
sV\u83dc
p1600
I2941
sV\u675f
p1601
I398
sV\u64de
p1602
I4208
sV\u51fa
p1603
I4096
sV\u5367
p1604
I1671
sV\u90e6
p1605
I399
sV\u55e8
p1606
I400
sV\u96ea
p1607
I401
sV\u8bec
p1608
I4210
sV\u8f6f
p1609
I402
sV\u6cee
p1610
I2944
sV\u8fdd
p1611
I3978
sV\u8c29
p1612
I3257
sV\u67f4
p1613
I403
sV\u7b77
p1614
I4211
sV\u58f6
p1615
I4212
sV\u5c79
p1616
I404
sV\u7a7f
p1617
I4008
sV\u517b
p1618
I2945
sV\u5efa
p1619
I4213
sV\u527d
p1620
I405
sV\u53fc
p1621
I1673
sV\u777f
p1622
I4214
sV\u94fe
p1623
I1674
sV\u6b81
p1624
I406
sV\u8a00
p1625
I407
sV\u6e83
p1626
I2946
sV\u8902
p1627
I2947
sV\u6d85
p1628
I408
sV\u8c04
p1629
I409
sV\u8087
p1630
I1675
sV\u6700
p1631
I4098
sV\u6789
p1632
I410
sV\u8e22
p1633
I4941
sV\u9a8b
p1634
I1676
sV\u5bee
p1635
I5018
sV\u598d
p1636
I1677
sV\u780c
p1637
I4217
sV\u7f0e
p1638
I1678
sV\u7391
p1639
I411
sV\u7693
p1640
I2949
sV\u5112
p1641
I412
sV\u6897
p1642
I1679
sV\u8f99
p1643
I413
sV\u5085
p1644
I2187
sV\u629b
p1645
I1680
sV\u6ea7
p1646
I2071
sV\u819d
p1647
I414
sV\u601c
p1648
I2950
sV\u5ba1
p1649
I2951
sV\u7a20
p1650
I2952
sV\u7ea3
p1651
I1681
sV\u7b5a
p1652
I2419
sV\u73a9
p1653
I4375
sV\u5c24
p1654
I4222
sV\u77a9
p1655
I4223
sV\u69ad
p1656
I2953
sV\u83b1
p1657
I1682
sV\u8230
p1658
I2954
sV\u8132
p1659
I415
sV\u62df
p1660
I3038
sV\u7fb9
p1661
I2955
sV\u5e38
p1662
I416
sV\u915e
p1663
I3675
sV\u51bd
p1664
I4224
sV\u503c
p1665
I417
sV\u54bf
p1666
I1683
sV\u973e
p1667
I418
sV\u6bc1
p1668
I1684
sV\u4ec3
p1669
I2959
sV\u6942
p1670
I2960
sV\u6dc5
p1671
I1685
sV\u9522
p1672
I4061
sV\u8346
p1673
I1686
sV\u8389
p1674
I4368
sV\u70ed
p1675
I4562
sV\u9acb
p1676
I419
sV\u854a
p1677
I1687
sV\u79cd
p1678
I1688
sV\u584c
p1679
I1689
sV\u9ccf
p1680
I420
sV\u53d1
p1681
I421
sV\u5250
p1682
I1691
sV\u9152
p1683
I1692
sV\u75d5
p1684
I1693
sV\u7599
p1685
I4454
sV\u65e2
p1686
I4694
sV\u8fd9
p1687
I4227
sV\u4e58
p1688
I2962
sV\u82db
p1689
I1694
sV\u6d5a
p1690
I1695
sV\u84df
p1691
I1696
sV\u675e
p1692
I1697
sV\u7be1
p1693
I422
sV\u7ee3
p1694
I2965
sV\u5962
p1695
I423
sV\u5de5
p1696
I1699
sV\u90e7
p1697
I1700
sV\u5366
p1698
I424
sV\u77e9
p1699
I425
sV\u9668
p1700
I426
sV\u6309
p1701
I3130
sV\u556a
p1702
I427
sV\u886c
p1703
I1702
sV\u6cef
p1704
I1703
sV\u6f6e
p1705
I428
sV\u83f1
p1706
I429
sV\u8270
p1707
I1704
sV\u66f3
p1708
I1705
sV\u78f7
p1709
I1706
sV\u6068
p1710
I4908
sV\u5e78
p1711
I4232
sV\u9c91
p1712
I4012
sV\u51fd
p1713
I2970
sV\u707c
p1714
I2971
sV\u94ff
p1715
I2972
sV\u777e
p1716
I430
sV\u6a80
p1717
I1707
sV\u4e03
p1718
I1708
sV\u6982
p1719
I4233
sV\u9ebe
p1720
I2710
sV\u8386
p1721
I431
sV\u6709
p1722
I2973
sV\u4fed
p1723
I3040
sV\u7a0b
p1724
I432
sV\u590d
p1725
I4234
sV\u788c
p1726
I1709
sV\u5c0f
p1727
I1710
sV\u7f8e
p1728
I4235
sV\u9192
p1729
I433
sV\u5494
p1730
I434
sV\u6817
p1731
I4236
sV\u6b96
p1732
I2976
sV\u4f19
p1733
I435
sV\u4e98
p1734
I1711
sV\u821b
p1735
I436
sV\u8f9b
p1736
I2828
sV\u9889
p1737
I4627
sV\u7aa0
p1738
I437
sV\u9e23
p1739
I438
sV\u501a
p1740
I2192
sV\u5f8a
p1741
I3204
sV\u7ca4
p1742
I439
sV\u53a6
p1743
I4240
sV\u5729
p1744
I440
sV\u692d
p1745
I441
sV\u80f3
p1746
I3041
sV\u6c2f
p1747
I2977
sV\u4fae
p1748
I442
sV\u8331
p1749
I4241
sV\u906e
p1750
I4645
sV\u7837
p1751
I2978
sV\u5bb6
p1752
I443
sV\u5f39
p1753
I1713
sV\u9eb8
p1754
I444
sV\u523b
p1755
I4244
sV\u914b
p1756
I2624
sV\u4e43
p1757
I445
sV\u5eca
p1758
I1970
sV\u8d45
p1759
I446
sV\u7ef7
p1760
I1775
sV\u988d
p1761
I4258
sV\u63c6
p1762
I447
sV\u8749
p1763
I448
sV\u724d
p1764
I3878
sV\u8f66
p1765
I3436
sV\u9738
p1766
I2684
sV\u5c4f
p1767
I449
sV\u7fce
p1768
I450
sV\u5351
p1769
I2981
sV\u72d0
p1770
I2982
sV\u5555
p1771
I2983
sV\u74f6
p1772
I2798
sV\u8857
p1773
I4249
sV\u4f59
p1774
I4250
sV\u4ed8
p1775
I451
sV\u625b
p1776
I452
sV\u8dda
p1777
I453
sV\u5728
p1778
I4263
sV\u60dc
p1779
I1715
sV\u7cd6
p1780
I4981
sV\u7ae0
p1781
I1716
sV\u5ce4
p1782
I454
sV\u53e6
p1783
I2985
sV\u9769
p1784
I1717
sV\u96e8
p1785
I2986
sV\u95ea
p1786
I455
sV\u7708
p1787
I4850
sV\u8d53
p1788
I3265
sV\u6fee
p1789
I2988
sV\u6371
p1790
I1718
sV\u9877
p1791
I456
sV\u5f79
p1792
I457
sV\u7ef8
p1793
I458
sV\u817e
p1794
I4912
sV\u517d
p1795
I459
sV\u77fe
p1796
I2989
sV\u8f83
p1797
I1721
sV\u6c85
p1798
I460
sV\u5357
p1799
I1976
sV\u8206
p1800
I2990
sV\u8708
p1801
I461
sV\u5b8b
p1802
I4257
sV\u788d
p1803
I462
sV\u8113
p1804
I4969
sV\u752c
p1805
I2196
sV\u5310
p1806
I2991
sV\u5793
p1807
I4259
sV\u5012
p1808
I463
sV\u5495
p1809
I1722
sV\u5514
p1810
I2993
sV\u4f18
p1811
I4260
sV\u62fe
p1812
I3808
sV\u809d
p1813
I464
sV\u659f
p1814
I1723
sV\u9a84
p1815
I3681
sV\u9aa1
p1816
I465
sV\u7b20
p1817
I2994
sV\u9ca5
p1818
I466
sV\u7784
p1819
I1962
sV\u7728
p1820
I2995
sV\u742a
p1821
I467
sV\u88ad
p1822
I1724
sV\u8bb3
p1823
I4104
sV\u6daf
p1824
I468
sV\u8e2e
p1825
I469
sV\u82b1
p1826
I1725
sV\u6109
p1827
I3044
sV\u87b3
p1828
I4264
sV\u6c32
p1829
I4105
sV\u64b5
p1830
I2998
sV\u9b3c
p1831
I2601
sV\u5a36
p1832
I2999
sV\u7eb9
p1833
I3000
sV\u7f38
p1834
I1726
sV\u73bb
p1835
I470
sV\u5c3a
p1836
I3001
sV\u70bd
p1837
I3002
sV\u7934
p1838
I2200
sV\u4fc3
p1839
I3003
sV\u6842
p1840
I3004
sV\u6cc5
p1841
I1728
sV\u8d44
p1842
I4267
sV\u51e0
p1843
I76
sV\u6748
p1844
I471
sV\u74e3
p1845
I2573
sV\u5636
p1846
I2836
sV\u7350
p1847
I472
sV\u9052
p1848
I1729
sV\u7554
p1849
I473
sV\u54ce
p1850
I1367
sV\u4ed9
p1851
I1730
sV\u4f58
p1852
I3006
sV\u8c5a
p1853
I3007
sV\u865e
p1854
I3008
sV\u5ae1
p1855
I1731
sV\u7b60
p1856
I4270
sV\u6717
p1857
I4037
sV\u5ce5
p1858
I1732
sV\u71e7
p1859
I3009
sV\u7266
p1860
I1733
sV\u5768
p1861
I3010
sV\u6beb
p1862
I1734
sV\u96ef
p1863
I3196
sV\u8def
p1864
I3012
sV\u6e6e
p1865
I474
sV\u82f1
p1866
I475
sV\u67f3
p1867
I1735
sV\u7792
p1868
I4314
sV\u8574
p1869
I1736
sV\u7a76
p1870
I476
sV\u5315
p1871
I4315
sV\u6a3e
p1872
I4704
sV\u90fd
p1873
I477
sV\u517c
p1874
I4275
sV\u75ff
p1875
I1738
sV\u767e
p1876
I478
sV\u8882
p1877
I479
sV\u8c05
p1878
I1739
sV\u8d84
p1879
I3014
sV\u5740
p1880
I2203
sV\u7b0b
p1881
I480
sV\u80f0
p1882
I4179
sV\u780d
p1883
I3015
sV\u5211
p1884
I4276
sV\u9713
p1885
I4277
sV\u7092
p1886
I4278
sV\u5415
p1887
I4279
sV\u5594
p1888
I481
sV\u55ea
p1889
I2987
sV\u9898
p1890
I4916
sV\u4e19
p1891
I482
sV\u8f98
p1892
I4280
sV\u631b
p1893
I4281
sV\u74ee
p1894
I3273
sV\u601d
p1895
I1740
sV\u819c
p1896
I4282
sV\u741b
p1897
I4917
sV\u5ba0
p1898
I1741
sV\u98a2
p1899
I1742
sV\u6986
p1900
I3832
sV\u7629
p1901
I1743
sV\u54aa
p1902
I4283
sV\u8d2f
p1903
I1744
sV\u4eae
p1904
I483
sV\u8231
p1905
I4284
sV\u63b0
p1906
I4285
sV\u60b2
p1907
I1745
sV\u621f
p1908
I4317
sV\u5937
p1909
I4286
sV\u7fb8
p1910
I4287
sV\u533b
p1911
I4288
sV\u51bc
p1912
I3017
sV\u96be
p1913
I3018
sV\u8bc0
p1914
I1746
sV\u4f43
p1915
I484
sV\u68c2
p1916
I485
sV\u8dc4
p1917
I1747
sV\u62c6
p1918
I486
sV\u7b4b
p1919
I1748
sV\u60f6
p1920
I3274
sV\u7ece
p1921
I487
sV\u5251
p1922
I3020
sV\u73d0
p1923
I3021
sV\u9753
p1924
I3022
sV\u5455
p1925
I3023
sV\u51cf
p1926
I2841
sV\u8e59
p1927
I1749
sV\u4fd8
p1928
I488
sV\u6ed1
p1929
I2206
sV\u5c65
p1930
I4294
sV\u7167
p1931
I489
sV\u9f50
p1932
I4108
sV\u9669
p1933
I1750
sV\u70fd
p1934
I4274
sV\u54d0
p1935
I4327
sV\u54ea
p1936
I3026
sV\u7bd3
p1937
I4109
sV\u726f
p1938
I4624
sV\u6773
p1939
I4296
sV\u8475
p1940
I3027
sV\u4f7f
p1941
I3275
sV\u9977
p1942
I490
sV\u78d5
p1943
I1575
sV\u907d
p1944
I3028
sV\u957f
p1945
I491
sV\u96fe
p1946
I1752
sV\u8d81
p1947
I4300
sV\u8c00
p1948
I492
sV\u6f02
p1949
I1753
sV\u6f14
p1950
I4492
sV\u6687
p1951
I3030
sV\u5f2d
p1952
I2430
sV\u5e0c
p1953
I3031
sV\u9a8f
p1954
I1754
sV\u4eac
p1955
I3048
sV\u7591
p1956
I493
sV\u5410
p1957
I3032
sV\u9093
p1958
I1755
sV\u5395
p1959
I1756
sV\u679d
p1960
I4302
sV\u652b
p1961
I2784
sV\u5531
p1962
I2431
sV\u78a3
p1963
I1757
sV\u7f22
p1964
I494
sV\u96a7
p1965
I3033
sV\u9526
p1966
I4303
sV\u83e9
p1967
I5005
sV\u6cab
p1968
I495
sV\u732a
p1969
I496
sV\u6d5c
p1970
I4110
sV\u9f89
p1971
I4520
sV\u51c0
p1972
I4513
sV\u6234
p1973
I1759
sV\u7eb7
p1974
I497
sV\u5e08
p1975
I3280
sV\u79b9
p1976
I3034
sV\u7838
p1977
I1761
sV\u54bb
p1978
I1762
sV\u7b3a
p1979
I4306
sV\u52bf
p1980
I1763
sV\u6c40
p1981
I498
sV\u6bc5
p1982
I1764
sV\u6a44
p1983
I499
sV\u86c7
p1984
I500
sV\u5760
p1985
I2848
sV\u5459
p1986
I4516
sV\u918d
p1987
I3889
sV\u5ccb
p1988
I3036
sV\u5fcd
p1989
I501
sV\u5e4c
p1990
I1765
sV\u63d6
p1991
I3917
sV\u594e
p1992
I4308
sV\u55d1
p1993
I502
sV\u5450
p1994
I1766
sV\u9752
p1995
I1767
sV\u5254
p1996
I1768
sV\u4ed7
p1997
I4309
sV\u8d56
p1998
I3037
sV\u9519
p1999
I3207
sV\u82df
p2000
I1769
sV\u5de1
p2001
I1770
sV\u5c60
p2002
I3039
sV\u5f62
p2003
I503
sV\u5be5
p2004
I1772
sV\u7f04
p2005
I4782
sV\u5566
p2006
I504
sV\u9068
p2007
I505
sV\u7c41
p2008
I4977
sV\u8e66
p2009
I3473
sV\u8fed
p2010
I506
sV\u8e6c
p2011
I1773
sV\u56bc
p2012
I3049
sV\u65f1
p2013
I4310
sV\u60f3
p2014
I1774
sV\u8912
p2015
I3281
sV\u789a
p2016
I3794
sV\u707f
p2017
I4412
sV\u5ef7
p2018
I507
sV\u55f2
p2019
I5019
sV\u59f9
p2020
I3042
sV\u7eb0
p2021
I4687
sV\u5b7a
p2022
I1776
sV\u77fd
p2023
I4311
sV\u567c
p2024
I4312
sV\u52ff
p2025
I508
sV\u6d01
p2026
I3043
sV\u6d41
p2027
I4324
sV\u6a84
p2028
I1777
sV\u9aef
p2029
I3678
sV\u8109
p2030
I1778
sV\u54ed
p2031
I3474
sV\u7c97
p2032
I2483
sV\u5316
p2033
I1988
sV\u7586
p2034
I4913
sV\u9511
p2035
I1779
sV\u5490
p2036
I509
sV\u5792
p2037
I3045
sV\u7315
p2038
I3046
sV\u6e17
p2039
I4316
sV\u5618
p2040
I4522
sV\u8297
p2041
I2561
sV\u6b9a
p2042
I3047
sV\u671d
p2043
I1781
sV\u9a9b
p2044
I3283
sV\u821f
p2045
I510
sV\u7823
p2046
I4318
sV\u851a
p2047
I3892
sV\u6155
p2048
I5014
sV\u9aa4
p2049
I4319
sV\u4f70
p2050
I4115
sV\u50a8
p2051
I1782
sV\u8eac
p2052
I511
sV\u9e2d
p2053
I4975
sV\u7768
p2054
I4271
sV\u5149
p2055
I3690
sV\u8033
p2056
I1783
sV\u8335
p2057
I4321
sV\u9c9f
p2058
I3284
sV\u5e37
p2059
I4322
sV\u5939
p2060
I1784
sV\u68f5
p2061
I4116
sV\u543b
p2062
I4323
sV\u96bc
p2063
I512
sV\u5974
p2064
I4711
sV\u8d41
p2065
I513
sV\u6843
p2066
I1785
sV\u6fc2
p2067
I514
sV\u95f7
p2068
I2851
sV\u8367
p2069
I4816
sV\u5c4b
p2070
I515
sV\u9676
p2071
I4117
sV\u8beb
p2072
I3011
sV\u7ecc
p2073
I3050
sV\u9551
p2074
I516
sV\u94d0
p2075
I1786
sV\u9053
p2076
I3051
sV\u9cab
p2077
I4900
sV\u5355
p2078
I3052
sV\u5ea6
p2079
I4130
sV\u6dd6
p2080
I4328
sV\u68d8
p2081
I1787
sV\u5f69
p2082
I3920
sV\u8bda
p2083
I517
sV\u7ffb
p2084
I1583
sV\u7ce0
p2085
I1789
sV\u86f0
p2086
I4408
sV\u98a7
p2087
I2635
sV\u6361
p2088
I3309
sV\u55e6
p2089
I3054
sV\u9169
p2090
I1790
sV\u70e8
p2091
I1791
sV\u8c6b
p2092
I518
sV\u53ea
p2093
I3056
sV\u6f6d
p2094
I1792
sV\u4eec
p2095
I1793
sV\u4fa9
p2096
I3286
sV\u6073
p2097
I4330
sV\u87d2
p2098
I4926
sV\u62f4
p2099
I519
sV\u5979
p2100
I520
sV\u547b
p2101
I3057
sV\u5435
p2102
I2387
sV\u777d
p2103
I1794
sV\u76fc
p2104
I521
sV\u527f
p2105
I3058
sV\u62d4
p2106
I3693
sV\u6c81
p2107
I522
sV\u7601
p2108
I3475
sV\u8983
p2109
I1795
sV\u8d2a
p2110
I4525
sV\u6787
p2111
I3059
sV\u6089
p2112
I523
sV\u7eb8
p2113
I4243
sV\u620a
p2114
I1796
sV\uff0c
p2115
I4334
sV\u5b8f
p2116
I4335
sV\u9510
p2117
I524
sV\u6482
p2118
I4121
sV\u4f97
p2119
I525
sV\u88d8
p2120
I3053
sV\u9005
p2121
I2215
sV\u659b
p2122
I1797
sV\u869d
p2123
I526
sV\u871c
p2124
I1798
sV\u7d20
p2125
I3063
sV\u9aa5
p2126
I527
sV\u77a7
p2127
I1799
sV\u7426
p2128
I528
sV\u50a9
p2129
I3064
sV\u722a
p2130
I529
sV\u4ead
p2131
I4337
sV\u8baf
p2132
I4338
sV\u66dc
p2133
I1788
sV\u6c11
p2134
I3406
sV\u81b3
p2135
I4339
sV\u62b5
p2136
I3065
sV\u8334
p2137
I3066
sV\u5fb7
p2138
I1801
sV\u5938
p2139
I530
sV\u55bb
p2140
I1802
sV\u96bd
p2141
I1803
sV\u773c
p2142
I1804
sV\u53bf
p2143
I1805
sV\u903e
p2144
I531
sV\u5893
p2145
I3966
sV\u8e42
p2146
I1806
sV\u8446
p2147
I1807
sV\u6148
p2148
I532
sV\u8339
p2149
I4689
sV\u7ecd
p2150
I1808
sV\u8863
p2151
I4930
sV\u54d1
p2152
I533
sV\u9550
p2153
I4340
sV\u810f
p2154
I4714
sV\u4fd7
p2155
I4341
sV\u6127
p2156
I4877
sV\u88d9
p2157
I4342
sV\u66dd
p2158
I534
sV\u80b2
p2159
I3016
sV\u5ce1
p2160
I1809
sV\u5bb0
p2161
I3341
sV\u79e3
p2162
I3070
sV\u5e62
p2163
I535
sV\u7ae5
p2164
I536
sV\u5b64
p2165
I3071
sV\u97e7
p2166
I1810
sV\u5466
p2167
I537
sV\u70e9
p2168
I538
sV\u5168
p2169
I3072
sV\u6deb
p2170
I1811
sV\u526a
p2171
I539
sV\u8f6c
p2172
I1812
sV\u6bef
p2173
I1813
sV\u886e
p2174
I4347
sV\u6570
p2175
I3074
sV\u81f3
p2176
I3075
sV\u6eb6
p2177
I2550
sV\u90e8
p2178
I3055
sV\u58f9
p2179
I3076
sV\u7978
p2180
I3077
sV\u95fb
p2181
I3078
sV\u7a7a
p2182
I540
sV\u56fd
p2183
I3079
sV\u977c
p2184
I1815
sV\u707e
p2185
I541
sV\u8c01
p2186
I1816
sV\u6b84
p2187
I1817
sV\u8840
p2188
I4154
sV\u8188
p2189
I3080
sV\u828a
p2190
I542
sV\u5f8c
p2191
I543
sV\u788e
p2192
I4350
sV\u5411
p2193
I4351
sV\u4f17
p2194
I3082
sV\u55b9
p2195
I3821
sV\u6998
p2196
I544
sV\u679c
p2197
I545
sV\u7ea5
p2198
I4185
sV\u609a
p2199
I2855
sV\u5a25
p2200
I546
sV\u5ba4
p2201
I1819
sV\u94a6
p2202
I1820
sV\u5029
p2203
I547
sV\u71a8
p2204
I548
sV\u8d2b
p2205
I1821
sV\u52aa
p2206
I4354
sV\u6e2d
p2207
I549
sV\u4fac
p2208
I3084
sV\u8431
p2209
I4355
sV\u85b0
p2210
I550
sV\u8235
p2211
I4357
sV\u83b4
p2212
I551
sV\u9cb6
p2213
I3085
sV\u953b
p2214
I1823
sV\u9aba
p2215
I3087
sV\u733f
p2216
I3088
sV\u8c41
p2217
I552
sV\u6dc0
p2218
I3089
sV\u6ec2
p2219
I553
sV\u8bc4
p2220
I1824
sV\u8747
p2221
I3090
sV\u57a0
p2222
I1586
sV\u61c8
p2223
I3091
sV\u5d4b
p2224
I554
sV\u7fcc
p2225
I3092
sV\u7b4f
p2226
I1825
sV\u504c
p2227
I1385
sV\u76d2
p2228
I555
sV\u53d4
p2229
I4363
sV\u4f57
p2230
I1826
sV\u8859
p2231
I1827
sV\u655b
p2232
I556
sV\u674e
p2233
I3289
sV\u67dc
p2234
I1828
sV\u635f
p2235
I557
sV\u80de
p2236
I558
sV\u5c61
p2237
I4365
sV\u9ee2
p2238
I559
sV\u7d27
p2239
I4129
sV\u54e6
p2240
I3094
sV\u8d6b
p2241
I560
sV\u7ea6
p2242
I2858
sV\u8e6d
p2243
I3095
sV\u7ed3
p2244
I3900
sV\u8748
p2245
I4268
sV\u68ee
p2246
I3096
sV\u8471
p2247
I3097
sV\u66f2
p2248
I3098
sV\u63f4
p2249
I561
sV\u5f77
p2250
I3099
sV\u58ee
p2251
I4984
sV\u9879
p2252
I3100
sV\u79f8
p2253
I562
sV\u557b
p2254
I3101
sV\u7afa
p2255
I3102
sV\u767d
p2256
I1829
sV\u537f
p2257
I3103
sV\u4e00
p2258
I3104
sV\u6487
p2259
I3105
sV\u6389
p2260
I563
sV\u6208
p2261
I4369
sV\u9e8b
p2262
I1830
sV\u810a
p2263
I3106
sV\u7c0c
p2264
I4370
sV\u7791
p2265
I564
sV\u9610
p2266
I565
sV\u5195
p2267
I1831
sV\u9014
p2268
I566
sV\u6574
p2269
I3013
sV\u8c22
p2270
I5028
sV\u82ae
p2271
I2860
sV\u641c
p2272
I3108
sV\u609f
p2273
I1832
sV\u631e
p2274
I567
sV\u5fa1
p2275
I3109
sV\u9e20
p2276
I1833
sV\u714a
p2277
I3740
sV\u7d22
p2278
I568
sV\u99a5
p2279
I569
sV\u5824
p2280
I4374
sV\u54a7
p2281
I570
sV\u53a9
p2282
I3112
sV\u5228
p2283
I4376
sV\u4eab
p2284
I1835
sV\u7406
p2285
I2444
sV\u8c2c
p2286
I3113
sV\u68af
p2287
I571
sV\u8089
p2288
I4332
sV\u82b3
p2289
I4378
sV\u9cb2
p2290
I3484
sV\u5cb7
p2291
I1836
sV\u6108
p2292
I4333
sV\u5bb9
p2293
I4379
sV\u593a
p2294
I3114
sV\u75bd
p2295
I3115
sV\u543c
p2296
I572
sV\u533e
p2297
I3116
sV\u8fc1
p2298
I3117
sV\u83e1
p2299
I4530
sV\u8d42
p2300
I1838
sV\u89c5
p2301
I3118
sV\u7537
p2302
I2861
sV\u6746
p2303
I3119
sV\u63c9
p2304
I1839
sV\u6248
p2305
I573
sV\u814a
p2306
I1840
sV\u5dcd
p2307
I574
sV\u5239
p2308
I1592
sV\u9552
p2309
I1841
sV\u71d5
p2310
I1842
sV\u6cd7
p2311
I3120
sV\u6bd9
p2312
I575
sV\u6a58
p2313
I4385
sV\u86db
p2314
I1843
sV\u695a
p2315
I1844
sV\u60df
p2316
I3121
sV\u635e
p2317
I1845
sV\u7fe1
p2318
I576
sV\u7ae3
p2319
I3123
sV\u59e5
p2320
I1847
sV\u94e7
p2321
I1848
sV\u5766
p2322
I577
sV\u73e9
p2323
I578
sV\u6bb4
p2324
I4043
sV\u916a
p2325
I3124
sV\u796f
p2326
I5067
sV\u67f1
p2327
I4388
sV\u6670
p2328
I3125
sV\u62f3
p2329
I1851
sV\u6572
p2330
I579
sV\u61f5
p2331
I4389
sV\u95f2
p2332
I2512
sV\u5bf9
p2333
I3126
sV\u9a78
p2334
I1852
sV\u797a
p2335
I580
sV\u95fd
p2336
I581
sV\u547c
p2337
I4391
sV\u8dc6
p2338
I3995
sV\u4f01
p2339
I4392
sV\u6d82
p2340
I4393
sV\u6905
p2341
I3128
sV\u8f97
p2342
I3061
sV\u8309
p2343
I1853
sV\u818a
p2344
I582
sV\u5c8c
p2345
I583
sV\u9690
p2346
I3131
sV\u7115
p2347
I3132
sV\u8c17
p2348
I584
sV\u8f96
p2349
I1854
sV\u859b
p2350
I3062
sV\u839e
p2351
I1855
sV\u7ea0
p2352
I585
sV\u5a23
p2353
I3133
sV\u6f4d
p2354
I4923
sV\u98a4
p2355
I4396
sV\u5427
p2356
I3134
sV\u5668
p2357
I2967
sV\u7329
p2358
I1856
sV\u52a8
p2359
I1857
sV\u4e2b
p2360
I4398
sV\u8d2d
p2361
I4399
sV\u8bae
p2362
I3135
sV\u6731
p2363
I586
sV\u6233
p2364
I3136
sV\u80b4
p2365
I587
sV\u9ab8
p2366
I588
sV\u963b
p2367
I1858
sV\u79ba
p2368
I1859
sV\u94bc
p2369
I589
sV\u653b
p2370
I3715
sV\u6c41
p2371
I4360
sV\u4ec0
p2372
I4402
sV\u6447
p2373
I1860
sV\u87c6
p2374
I4403
sV\u8349
p2375
I590
sV\u62c8
p2376
I3137
sV\u61ca
p2377
I591
sV\u6749
p2378
I4248
sV\u9ccc
p2379
I1861
sV\u5751
p2380
I3138
sV\u76d0
p2381
I3139
sV\u75d2
p2382
I592
sV\u6c57
p2383
I593
sV\u7aa5
p2384
I4336
sV\u82ce
p2385
I4723
sV\u655d
p2386
I3140
sS'_'
p2387
I2
sV\u7f61
p2388
I3141
sV\u9ee0
p2389
I3142
sV\u5de2
p2390
I3143
sV\u9965
p2391
I1863
sV\u58e4
p2392
I594
sV\u97e6
p2393
I595
sV\u7bb4
p2394
I4657
sV\u5426
p2395
I1800
sV\u787c
p2396
I2651
sV\u66f0
p2397
I596
sV\u8273
p2398
I597
sV\u6175
p2399
I1864
sV\u60f4
p2400
I598
sV\u7b79
p2401
I1865
sV\u767b
p2402
I4411
sV\u54fc
p2403
I1866
sV\u907f
p2404
I599
sV\u8e81
p2405
I4413
sV\u6301
p2406
I2652
sV\u6b83
p2407
I3146
sV\u822a
p2408
I4943
sV\u6885
p2409
I600
sV\u8587
p2410
I1867
sV\u6606
p2411
I1868
sV\u6289
p2412
I601
sV\u55d4
p2413
I4292
sV\u9f8b
p2414
I1869
sV\u9c8d
p2415
I4417
sV\u998f
p2416
I1870
sV\u7a0e
p2417
I1871
sV\u7691
p2418
I602
sV\u786b
p2419
I4776
sV\u5412
p2420
I603
sV\u7095
p2421
I604
sV\u7ad6
p2422
I4886
sV\u4e16
p2423
I1872
sV\u916e
p2424
I4607
sV\u821e
p2425
I4419
sV\u9f20
p2426
I1873
sV\u5ba3
p2427
I605
sV\u60da
p2428
I4137
sV\u55a7
p2429
I606
sV\u7626
p2430
I607
sV\u52a9
p2431
I3150
sV\u6d4e
p2432
I3511
sV\u8fab
p2433
I4421
sV\u502a
p2434
I1874
sV\u6cad
p2435
I3151
sV\u8d2c
p2436
I3152
sV\u86b1
p2437
I1875
sV\u4f09
p2438
I3903
sV\u63b3
p2439
I608
sV\u5632
p2440
I3699
sV\u895f
p2441
I4138
sV\u7fa1
p2442
I4373
sV\u77bb
p2443
I609
sV\u783a
p2444
I4422
sV\u54bd
p2445
I4423
sV\u4ec1
p2446
I610
sV\u8bc3
p2447
I611
sV\u6c42
p2448
I3153
sV\u88c5
p2449
I3154
sV\u8944
p2450
I4424
sV\u87e0
p2451
I3491
sV\u62c9
p2452
I1877
sV\u804a
p2453
I1878
sV\u9ccd
p2454
I3155
sV\u5d4c
p2455
I1879
sV\u5cb1
p2456
I4631
sV\u76d1
p2457
I1880
sV\u7750
p2458
I612
sV\u74e2
p2459
I4139
sV\u540f
p2460
I1392
sV\u4e56
p2461
I613
sV\u5065
p2462
I4140
sV\u84dd
p2463
I4425
sV\u555c
p2464
I3782
sV\u5178
p2465
I4029
sV\u6ee8
p2466
I2027
sV\u75e7
p2467
I3156
sV\u72e9
p2468
I614
sV\u8feb
p2469
I3157
sV\u4e18
p2470
I4219
sV\u6770
p2471
I3158
sV\u5992
p2472
I2656
sV\u8174
p2473
I1884
sV\u5df7
p2474
I615
sV\u5e76
p2475
I1885
sV\u7af9
p2476
I4426
sV\u503e
p2477
I3067
sV\u54fd
p2478
I3159
sV\u557c
p2479
I4428
sV\u51ff
p2480
I616
sV\u4e01
p2481
I4429
sV\u8c82
p2482
I617
sV\u6805
p2483
I3160
sV\u6984
p2484
I1886
sV\u522b
p2485
I4537
sV\u6388
p2486
I1887
sV\u5f0b
p2487
I1888
sV\u590f
p2488
I1889
sV\u9611
p2489
I1890
sV\u9492
p2490
I618
sV\u7194
p2491
I1891
sV\u6d17
p2492
I4432
sV\u9698
p2493
I4535
sV\u671b
p2494
I4433
sV\u841d
p2495
I3162
sV\u659c
p2496
I619
sV\u611f
p2497
I4434
sV\u9e21
p2498
I3163
sV\u9ca2
p2499
I1892
sV\u7825
p2500
I1893
sV\u59a4
p2501
I1894
sV\u5527
p2502
I3164
sV\u5229
p2503
I620
sV\u53a8
p2504
I1895
sV\u6f2b
p2505
I3165
sV\u90aa
p2506
I1896
sV\u8c2d
p2507
I4436
sV\u989c
p2508
I4536
sV\u6631
p2509
I621
sV\u84b2
p2510
I3166
sV\u6035
p2511
I622
sV\u6c1f
p2512
I3906
sV\u5eb6
p2513
I623
sV\u7a39
p2514
I624
sV\u5bb8
p2515
I3167
sV\u6005
p2516
I2852
sV\u6865
p2517
I3802
sV\u513f
p2518
I4439
sV\u52be
p2519
I625
sV\u6fc0
p2520
I3168
sV\u8845
p2521
I626
sV\u89c4
p2522
I1898
sV\u9981
p2523
I4733
sV\u86c6
p2524
I4441
sV\u6249
p2525
I4442
sV\u9ecd
p2526
I3069
sV\u60ca
p2527
I627
sV\u7c4d
p2528
I4443
sV\u594f
p2529
I628
sV\u5353
p2530
I629
sV\u74d2
p2531
I630
sV\u5055
p2532
I3169
sV\u8363
p2533
I4727
sV\u4ed6
p2534
I3170
sV\u6a59
p2535
I3171
sV\u9525
p2536
I2658
sV\u68da
p2537
I4444
sV\u7751
p2538
I4406
sV\u85dc
p2539
I3173
sV\u82de
p2540
I631
sV\u5e61
p2541
I4445
sV\u5fe0
p2542
I632
sV\u5b63
p2543
I1901
sV\u60fa
p2544
I3497
sV\u90af
p2545
I4668
sV\u79e4
p2546
I1902
sV\u5567
p2547
I1903
sV\u7269
p2548
I3174
sV\u53e8
p2549
I633
sV\u8f6b
p2550
I634
sV\u6dec
p2551
I635
sV\u8671
p2552
I3175
sV\u7f29
p2553
I1397
sV\u81f4
p2554
I4447
sV\u7ef6
p2555
I3176
sV\u7a79
p2556
I1904
sV\u5bf8
p2557
I1905
sV\u7956
p2558
I2256
sV\u78fa
p2559
I3178
sV\u547d
p2560
I636
sV\u75fc
p2561
I637
sV\u917f
p2562
I638
sV\u52fe
p2563
I4449
sV\u9000
p2564
I639
sV\u7483
p2565
I3179
sV\u7785
p2566
I640
sV\u9604
p2567
I641
sV\u9a87
p2568
I1907
sV\u808b
p2569
I1908
sV\u5f0a
p2570
I642
sV\u820c
p2571
I643
sV\u88d5
p2572
I3470
sV\u50ac
p2573
I3303
sV\u6c93
p2574
I3180
sV\u8f95
p2575
I4452
sV\u4e14
p2576
I3181
sV\u7116
p2577
I644
sV\u5599
p2578
I3182
sV\u9f85
p2579
I4735
sV\u97a3
p2580
I2680
sV\u5b9d
p2581
I3183
sV\u75db
p2582
I3705
sV\u5e9f
p2583
I645
sV\u6020
p2584
I3185
sV\u5165
p2585
I4091
sV\u6da9
p2586
I4456
sV\u8c28
p2587
I1909
sV\u70ab
p2588
I646
sV\u6f2a
p2589
I647
sV\u722c
p2590
I1911
sV\u952e
p2591
I648
sV\u8f88
p2592
I2699
sV\u5830
p2593
I649
sV\u7cb3
p2594
I650
sV\u8d35
p2595
I3910
sV\u5fb5
p2596
I4457
sV\u82b7
p2597
I4458
sV\u65b9
p2598
I3188
sV\u8438
p2599
I3189
sV\u673a
p2600
I4459
sV\u8bbd
p2601
I1914
sV\u4ebf
p2602
I1915
sV\u8d3e
p2603
I651
sV\u94c3
p2604
I652
sV\u7f08
p2605
I4550
sV\u9644
p2606
I4461
sV\u94ce
p2607
I3880
sV\u5c48
p2608
I1916
sV\u5511
p2609
I4313
sV\u89d2
p2610
I4542
sV\u63cd
p2611
I1917
sV\u59e3
p2612
I4344
sV\u89d1
p2613
I3190
sV\u6850
p2614
I653
sV\u6cd3
p2615
I4463
sV\u4e54
p2616
I1918
sV\u72d7
p2617
I3191
sV\u5156
p2618
I654
sV\u5458
p2619
I3192
sV\u575a
p2620
I655
sV\u7bdd
p2621
I656
sV\u7edf
p2622
I3193
sV\u6b64
p2623
I4957
sV\u6362
p2624
I1920
sV\u67e5
p2625
I657
sV\u6664
p2626
I4464
sV\u6c68
p2627
I4465
sV\u70eb
p2628
I1921
sV\u53ed
p2629
I3195
sV\u76ef
p2630
I1922
sV\u556e
p2631
I1923
sV\u5ff5
p2632
I3197
sV\u5c3f
p2633
I3912
sV\u62f7
p2634
I1924
sV\u7168
p2635
I4345
sV\u6478
p2636
I3199
sV\u8bfd
p2637
I658
sV\u4eff
p2638
I659
sV\u83ba
p2639
I3376
sV\u5080
p2640
I660
sV\u7403
p2641
I661
sV\u5382
p2642
I3201
sV\u7684
p2643
I1927
sV\u5a07
p2644
I1928
sV\u9986
p2645
I662
sV\u9c88
p2646
I3203
sV\u800b
p2647
I4469
sV\u9f8a
p2648
I663
sV\u660f
p2649
I664
sV\u4f6c
p2650
I4346
sV\u6c13
p2651
I665
sV\u81c2
p2652
I3913
sV\u6f15
p2653
I3205
sV\u4e94
p2654
I666
sV\u5217
p2655
I3206
sV\u7519
p2656
I1929
sV\u7a9c
p2657
I667
sV\u9e1f
p2658
I668
sV\u54c4
p2659
I4541
sV\u60a0
p2660
I669
sV\u63a2
p2661
I3208
sV\u8725
p2662
I3209
sV\u86a4
p2663
I4475
sV\u8d29
p2664
I3210
sV\u5bc6
p2665
I2019
sV\u72ac
p2666
I4477
sV\u75ae
p2667
I1930
sV\u5931
p2668
I1931
sV\u78b0
p2669
I4478
sV\u9672
p2670
I4961
sV\u8237
p2671
I1932
sV\u6539
p2672
I670
sV\u84b8
p2673
I671
sV\u87ba
p2674
I3212
sV\u998d
p2675
I4216
sV\u8dbe
p2676
I3213
sV\u5141
p2677
I3214
sV\u5443
p2678
I672
sV\u73c2
p2679
I673
sV\u96c4
p2680
I1934
sV\u79c6
p2681
I674
sV\u514d
p2682
I2661
sV\u604b
p2683
I1936
sV\u7fca
p2684
I675
sV\u634d
p2685
I4480
sV\u62cc
p2686
I3216
sV\u664f
p2687
I1937
sV\u65ce
p2688
I676
sV\u6bd2
p2689
I677
sV\u4f55
p2690
I3218
sV\u6ed4
p2691
I3219
sV\u5978
p2692
I4348
sV\u7559
p2693
I3220
sV\u6fa1
p2694
I4991
sV\u57ad
p2695
I4597
sV\u7b5d
p2696
I3221
sV\u6cfd
p2697
I4712
sV\u5dde
p2698
I3222
sV\u60e0
p2699
I1938
sV\u8463
p2700
I4484
sV\u5a7a
p2701
I1814
sV\u6765
p2702
I3223
sV\u86e4
p2703
I3224
sV\u89e6
p2704
I678
sV\u6d69
p2705
I3225
sV\u6ce8
p2706
I1939
sV\u706b
p2707
I4485
sV\u8fea
p2708
I679
sV\u736d
p2709
I1940
sV\u72ec
p2710
I680
sV\u95ee
p2711
I1941
sV\u9971
p2712
I3227
sV\u58f0
p2713
I1942
sV\u7c73
p2714
I4486
sV\u8c34
p2715
I2637
sV\u7ef4
p2716
I681
sV\u5428
p2717
I4146
sV\u9634
p2718
I3507
sV\u8e7f
p2719
I682
sV\u5c01
p2720
I4963
sV\u5583
p2721
I4488
sV\u9685
p2722
I4489
sV\u9704
p2723
I683
sV\u5b87
p2724
I4490
sV\u5806
p2725
I684
sV\u7c89
p2726
I685
sV\u618b
p2727
I3229
sV\u53d6
p2728
I3307
sV\u828d
p2729
I4491
sV\u840e
p2730
I3230
sV\u8910
p2731
I686
sV\u6d93
p2732
I3231
sV\u4e95
p2733
I1943
sV\u8eaf
p2734
I4148
sV\u9499
p2735
I687
sV\u7518
p2736
I3233
sV\u6d2e
p2737
I4149
sV\u7a9d
p2738
I4494
sV\u95eb
p2739
I3398
sV\u7f9f
p2740
I1944
sV\u80a1
p2741
I688
sV\u6120
p2742
I3235
sV\u8ba7
p2743
I3236
sV\u8d28
p2744
I1945
sV\u4e2a
p2745
I1946
sV\u52ad
p2746
I4496
sV\u732c
p2747
I1947
sV\u6dde
p2748
I3846
sV\u542e
p2749
I3237
sV\u78b1
p2750
I3238
sV\u5a32
p2751
I3239
sV\u7eb5
p2752
I3240
sV\u7f34
p2753
I1948
sV\u63b7
p2754
I689
sV\u8036
p2755
I690
sV\u6538
p2756
I1949
sV\u69bb
p2757
I691
sV\u4fde
p2758
I2663
sV\u4fbf
p2759
I1950
sV\u7634
p2760
I2243
sV\u70c1
p2761
I1951
sV\u5140
p2762
I1952
sV\u628a
p2763
I4349
sV\u76c5
p2764
I1953
sV\u5bc7
p2765
I3244
sV\u4e0d
p2766
I4968
sV\u61cb
p2767
I4501
sV\u9e4a
p2768
I1954
sV\u62cd
p2769
I1955
sV\u67cf
p2770
I4502
sV\u7f8c
p2771
I1818
sV\u4ed5
p2772
I692
sV\u53d7
p2773
I4503
sV\u7c38
p2774
I1611
sV\u5565
p2775
I3919
sV\u90bb
p2776
I4152
sV\u5b5c
p2777
I3246
sV\u7fdf
p2778
I3247
sV\u5c5e
p2779
I693
sV\u80e1
p2780
I4504
sV\u7f3a
p2781
I4153
sV\u8be7
p2782
I1957
sV\u6866
p2783
I1958
sV\u72ed
p2784
I4505
sV\u6d32
p2785
I4064
sV\u9970
p2786
I1959
sV\u5df3
p2787
I694
sV\u7ef5
p2788
I4506
sV\u6076
p2789
I695
sV\u5a74
p2790
I4608
sV\u667a
p2791
I696
sV\u6b7c
p2792
I3248
sV\u6c7e
p2793
I697
sV\u9001
p2794
I1960
sV\u5180
p2795
I698
sV\u9503
p2796
I4507
sV\u9605
p2797
I1961
sV\u5784
p2798
I699
sV\u9886
p2799
I700
sV\u5c09
p2800
I4508
sV\u85e9
p2801
I4751
sV\u5e8a
p2802
I3249
sV\u820d
p2803
I1963
sV\u638c
p2804
I1964
sV\u6811
p2805
I3251
sV\u822c
p2806
I2565
sV\u4e15
p2807
I4509
sV\u5317
p2808
I3252
sV\u7096
p2809
I3253
sV\u5598
p2810
I1965
sV\u5b9c
p2811
I1966
sV\u5f1f
p2812
I3254
sV\u8e44
p2813
I4155
sV\u6021
p2814
I1967
sV\u7b71
p2815
I2028
sV\u62a2
p2816
I3255
sV\u6625
p2817
I1968
sV\u62c7
p2818
I4156
sV\u6b27
p2819
I4511
sV\u68a6
p2820
I3256
sV\u9080
p2821
I3200
sV\u6da8
p2822
I701
sV\u6c1b
p2823
I3987
sV\u6eaa
p2824
I3258
sV\u5e73
p2825
I3311
sV\u772f
p2826
I3259
sV\u94ae
p2827
I3260
sV\u5ab2
p2828
I702
sV\u9e35
p2829
I4512
sV\u631f
p2830
I4352
sV\u6a3d
p2831
I703
sV\u8bbc
p2832
I704
sV\u6cbe
p2833
I1969
sV\u9041
p2834
I705
sV\u8c21
p2835
I3712
sV\u5543
p2836
I706
sV\u72c2
p2837
I707
sV\u9645
p2838
I708
sV\u9b47
p2839
I3261
sV\u5c49
p2840
I3262
sV\u8bcd
p2841
I3510
sV\u814b
p2842
I3263
sV\u7eca
p2843
I709
sV\u624d
p2844
I4514
sV\u83cc
p2845
I1971
sV\u674f
p2846
I1972
sV\u64ce
p2847
I710
sV\u6851
p2848
I4515
sV\u89d0
p2849
I1973
sV\u6d53
p2850
I1974
sV\u7ea2
p2851
I3083
sV\u8fd4
p2852
I1975
sV\u7357
p2853
I711
sV\u7459
p2854
I3266
sV\u75d8
p2855
I1977
sV\u795b
p2856
I712
sV\u56da
p2857
I3267
sV\u9cde
p2858
I713
sV\u91d1
p2859
I2880
sV\u6563
p2860
I714
sV\u62e2
p2861
I4517
sV\u6b67
p2862
I715
sV\u573b
p2863
I4437
sV\u6c69
p2864
I3268
sV\u997d
p2865
I2671
sV\u516b
p2866
I3270
sV\u4eea
p2867
I3271
sV\u53ec
p2868
I1978
sV\u576f
p2869
I3272
sV\u94ee
p2870
I1979
sV\u9a9c
p2871
I4473
sV\u79f0
p2872
I716
sV\u5352
p2873
I4160
sV\u5c7f
p2874
I2672
sV\u8377
p2875
I717
sV\u80f6
p2876
I1980
sV\u6479
p2877
I1981
sV\u6845
p2878
I4440
sV\u8f7f
p2879
I718
sV\u6cfe
p2880
I3276
sV\u5200
p2881
I3277
sV\u9102
p2882
I3278
sV\u5404
p2883
I3279
sV\u9887
p2884
I1982
sV\u7b06
p2885
I1983
sV\u5f89
p2886
I1984
sV\u4e2d
p2887
I1822
sV\u828b
p2888
I1985
sV\u7d0a
p2889
I1986
sV\u4e24
p2890
I4740
sV\u800c
p2891
I719
sV\u9e43
p2892
I3609
sV\u6912
p2893
I1987
sV\u6d95
p2894
I720
sV\u6c14
p2895
I4521
sV\u7316
p2896
I721
sV\u7618
p2897
I3282
sV\u5a9b
p2898
I722
sV\u751a
p2899
I723
sV\u7c9f
p2900
I1989
sV\u7504
p2901
I4548
sV\u5cd9
p2902
I2298
sV\u86a3
p2903
I3285
sV\u65a5
p2904
I4524
sV\u8424
p2905
I1990
sV\u68a7
p2906
I1991
sV\u65b0
p2907
I4356
sV\u8fa9
p2908
I724
sV\u52ab
p2909
I1992
sV\u6d2a
p2910
I725
sV\u54af
p2911
I1993
sV\u7bb1
p2912
I3287
sV\u4e89
p2913
I1409
sV\u7eb3
p2914
I726
sV\u5c34
p2915
I727
sV\u8336
p2916
I728
sV\u8638
p2917
I3288
sV\u853a
p2918
I729
sV\u683c
p2919
I1994
sV\u6cbf
p2920
I730
sV\u63b4
p2921
I4358
sV\u53c1
p2922
I731
sV\u55c5
p2923
I732
sV\u7a23
p2924
I4395
sV\u82cb
p2925
I733
sV\u5d4a
p2926
I4527
sV\u7699
p2927
I4551
sV\u804c
p2928
I4528
sV\u874e
p2929
I1996
sV\u8bd1
p2930
I3290
sV\u8839
p2931
I4976
sV\u4ed3
p2932
I3291
sV\u558f
p2933
I3925
sV\u5356
p2934
I734
sV\u57d9
p2935
I1997
sV\u5658
p2936
I3292
sV\u960e
p2937
I2676
sV\u59dd
p2938
I1998
sV\u753b
p2939
I3086
sV\u7cdf
p2940
I3293
sV\u59b9
p2941
I4304
sV\u63e1
p2942
I735
sV\u9a91
p2943
I3926
sV\u6162
p2944
I1999
sV\u65e5
p2945
I736
sV\u6b66
p2946
I2000
sV\u4fe9
p2947
I2001
sV\u578b
p2948
I4100
sV\u6d6a
p2949
I2002
sV\u51ed
p2950
I3295
sV\u74ef
p2951
I2003
sV\u7bf1
p2952
I4532
sV\u9a70
p2953
I2004
sV\u7ef3
p2954
I2005
sV\u9972
p2955
I4533
sV\u533f
p2956
I4359
sV\u6376
p2957
I737
sV\u87f9
p2958
I738
sV\u8e1d
p2959
I2782
sV\u5f18
p2960
I4852
sV\u69fd
p2961
I4534
sV\u7280
p2962
I2006
sV\u9505
p2963
I2007
sV\u5484
p2964
I739
sV\u7f09
p2965
I3296
sV\u810d
p2966
I2008
sV\u808c
p2967
I3297
sV\u640f
p2968
I740
sV\u6a90
p2969
I2009
sV\u4e13
p2970
I2010
sV\u8c94
p2971
I3298
sV\u9017
p2972
I741
sV\u7396
p2973
I3299
sV\u5bfa
p2974
I4331
sV\u759a
p2975
I3300
sV\u789c
p2976
I742
sV\u7f9e
p2977
I3301
sV\u6321
p2978
I2011
sV\u62a0
p2979
I743
sV\u6525
p2980
I2012
sV\u64a4
p2981
I744
sV\u8ba6
p2982
I2013
sV\u6f29
p2983
I2014
sV\u4ea8
p2984
I2015
sV\u6346
p2985
I2961
sV\u6daa
p2986
I3302
sV\u90ac
p2987
I745
sV\u542f
p2988
I4539
sV\u57ae
p2989
I746
sV\u9ab0
p2990
I747
sV\u9e33
p2991
I2016
sV\u59b2
p2992
I748
sV\u8d9f
p2993
I2678
sV\u8037
p2994
I2017
sV\u8e1e
p2995
I3927
sV\u8d4b
p2996
I3718
sV\u8fbe
p2997
I3304
sV\u5341
p2998
I3305
sV\u62a1
p2999
I4553
sV\u7545
p3000
I4540
sV\u94c4
p3001
I2018
sV\u7bc6
p3002
I749
sV\u7ec8
p3003
I3306
sV\u624b
p3004
I2020
sV\u9976
p3005
I4162
sV\u80cc
p3006
I2021
sV\u5fcc
p3007
I4361
sV\u4e53
p3008
I750
sV\u5e93
p3009
I3891
sV\u9b4f
p3010
I3093
sV\u9057
p3011
I4543
sV\u93d6
p3012
I751
sV\u9759
p3013
I2022
sV\u76d8
p3014
I2023
sV\u98ce
p3015
I4362
sV\u795d
p3016
I3308
sV\u9f84
p3017
I3562
sV\u8361
p3018
I2024
sV\u8f7a
p3019
I4753
sV\u64e4
p3020
I2025
sV\u6867
p3021
I752
sV\u8be6
p3022
I753
sV\u8f69
p3023
I2026
sV\u4ee8
p3024
I754
sV\u8dea
p3025
I755
sV\u516d
p3026
I756
sV\u70ec
p3027
I757
sV\u77ee
p3028
I3310
sV\u5b71
p3029
I758
sV\u5192
p3030
I2975
sV\u9e73
p3031
I759
sV\u63f6
p3032
I3312
sV\u65fa
p3033
I3313
sV\u4ffe
p3034
I4545
sV\u7281
p3035
I760
sV\u5300
p3036
I3314
sV\u5783
p3037
I4546
sV\u9002
p3038
I3315
sV\u9504
p3039
I761
sV\u5987
p3040
I4549
sV\u5a06
p3041
I762
sV\u5f08
p3042
I3316
sV\u5c0a
p3043
I763
sV\u608d
p3044
I764
sV\u858f
p3045
I2029
sV\u660e
p3046
I2030
sV\u7410
p3047
I4301
sV\u8f93
p3048
I2031
sV\u85af
p3049
I3932
sV\u5197
p3050
I765
sV\u5ead
p3051
I4944
sV\u9699
p3052
I766
sV\u81a8
p3053
I4974
sV\u5b9b
p3054
I767
sV\u989d
p3055
I768
sV\u591c
p3056
I4552
sV\u5370
p3057
I4869
sV\u82a1
p3058
I769
sV\u6320
p3059
I3317
sV\u67a3
p3060
I2032
sV\u4ea9
p3061
I3318
sV\u73ab
p3062
I770
sV\u70ad
p3063
I3319
sV\u75af
p3064
I771
sV\u962e
p3065
I772
sV\u5509
p3066
I4756
sV\u73ed
p3067
I4466
sV\u5d34
p3068
I773
sV\u8236
p3069
I774
sV\u643a
p3070
I4554
sV\u6dbf
p3071
I775
sV\u4e3e
p3072
I3320
sV\u6c61
p3073
I3721
sV\u57c3
p3074
I3321
sV\u9042
p3075
I2033
sV\u94c5
p3076
I3322
sV\u5544
p3077
I2034
sV\u7a46
p3078
I3323
sV\u5ec9
p3079
I776
sV\u7236
p3080
I3933
sV\u653e
p3081
I4743
sV\u614c
p3082
I777
sV\u85cf
p3083
I778
sV\u864e
p3084
I2036
sV\u7ee2
p3085
I4366
sV\u6cd5
p3086
I2037
sV\u6d54
p3087
I779
sV\u5256
p3088
I780
sV\u745a
p3089
I2038
sV\u5d82
p3090
I3748
sV\u795c
p3091
I4560
sV\u9e5e
p3092
I3324
sV\u6062
p3093
I2039
sV\u65d6
p3094
I3999
sV\u6ee9
p3095
I781
sV\u8f68
p3096
I782
sV\u53eb
p3097
I783
sV\u6c6a
p3098
I2040
sV\u90ed
p3099
I784
sV\u916c
p3100
I2041
sV\u55ef
p3101
I785
sV\u5af1
p3102
I3328
sV\u6069
p3103
I3723
sV\u6392
p3104
I4759
sV\u6276
p3105
I786
sV\u86f9
p3106
I787
sV\u6715
p3107
I3522
sV\u8bfb
p3108
I3329
sV\u847a
p3109
I4566
sV\u6f3e
p3110
I4526
sV\u697c
p3111
I3330
sV\u6e7e
p3112
I788
sV\u5201
p3113
I4567
sV\u5703
p3114
I2043
sV\u9082
p3115
I789
sV\u7405
p3116
I3331
sV\u5584
p3117
I790
sV\u5907
p3118
I2044
sV\u9a86
p3119
I791
sV\u5f88
p3120
I792
sV\u5761
p3121
I4089
sV\u800d
p3122
I2045
sV\u6f13
p3123
I793
sV\u8892
p3124
I794
sV\u8c15
p3125
I2046
sV\u6d94
p3126
I2047
sV\u7619
p3127
I2048
sV\u9798
p3128
I4568
sV\u7b1b
p3129
I4569
sV\u949a
p3130
I2049
sV\u781d
p3131
I2050
sV\u701b
p3132
I4761
sV\u5e9e
p3133
I4571
sV\u63a0
p3134
I795
sV\u80a2
p3135
I2051
sV\u8425
p3136
I3335
sV\u65a4
p3137
I796
sV\u5374
p3138
I4962
sV\u6e29
p3139
I2052
sV\u4fa8
p3140
I2053
sV\u732b
p3141
I3337
sV\u6caa
p3142
I3338
sV\u502d
p3143
I2054
sV\u51ac
p3144
I3339
sV\u952f
p3145
I2055
sV\u76ae
p3146
I2056
sV\u5a31
p3147
I2057
sV\u7ec9
p3148
I2035
sV\u97a0
p3149
I4128
sV\u5609
p3150
I4872
sV\u561f
p3151
I3524
sV\u9119
p3152
I3370
sV\u67b8
p3153
I4576
sV\u64ba
p3154
I2058
sV\u683d
p3155
I797
sV\u8d3f
p3156
I2059
sV\u5241
p3157
I3342
sV\u73c0
p3158
I3343
sV\u70c2
p3159
I798
sV\u5947
p3160
I799
sV\u98a0
p3161
I4166
sV\u9e49
p3162
I800
sV\u8fe9
p3163
I4531
sV\u634b
p3164
I2060
sV\u7cca
p3165
I801
sV\u604d
p3166
I4577
sV\u654f
p3167
I2061
sV\u914c
p3168
I3935
sV\u827e
p3169
I5041
sV\u4f53
p3170
I802
sV\u68d2
p3171
I803
sV\u6c55
p3172
I4579
sV\u65cf
p3173
I4558
sV\u9157
p3174
I4580
sV\u5659
p3175
I4581
sV\u7f25
p3176
I1622
sV\u7b5b
p3177
I804
sV\u785d
p3178
I3344
sV\u59dc
p3179
I805
sV\u7ede
p3180
I4582
sV\u83e0
p3181
I3345
sV\u85e4
p3182
I3346
sV\u5b50
p3183
I1422
sV\u8e69
p3184
I2062
sV\u4fe8
p3185
I806
sV\u536b
p3186
I3347
sV\u6cea
p3187
I4583
sV\u706d
p3188
I2063
sV\u956f
p3189
I807
sV\u76fe
p3190
I3029
sV\u9a71
p3191
I3350
sV\u5bf0
p3192
I2064
sV\u5df4
p3193
I2065
sV\u6177
p3194
I4584
sV\u54a8
p3195
I1624
sV\u8679
p3196
I3351
sV\u9cd5
p3197
I2687
sV\u73f2
p3198
I3533
sV\u8d54
p3199
I4559
sV\u76cf
p3200
I3824
sV\u5f81
p3201
I2479
sV\u9083
p3202
I2066
sV\u5385
p3203
I2067
sV\u5e87
p3204
I4586
sV\u5d06
p3205
I808
sV\u848b
p3206
I2068
sV\u4e4e
p3207
I4859
sV\u878d
p3208
I4587
sV\u660c
p3209
I4588
sV\u8154
p3210
I5034
sV\u6aac
p3211
I4169
sV\u8c10
p3212
I809
sV\u6893
p3213
I3352
sV\u6e2f
p3214
I2890
sV\u5199
p3215
I3353
sV\u5018
p3216
I4591
sV\u5c9b
p3217
I810
sV\u6bdb
p3218
I2688
sV\u7a9f
p3219
I2069
sV\u65a1
p3220
I4593
sV\u9131
p3221
I4763
sV\u60a3
p3222
I2070
sV\u6fa7
p3223
I2113
sV\u63a5
p3224
I4595
sV\u4ea7
p3225
I811
sV\u8d26
p3226
I4596
sV\u54ab
p3227
I2072
sV\u9706
p3228
I3730
sV\u97ad
p3229
I2073
sV\u72af
p3230
I812
sV\u4e52
p3231
I4641
sV\u5389
p3232
I2480
sV\u78b3
p3233
I813
sV\u5bb5
p3234
I4598
sV\u5a34
p3235
I814
sV\u906d
p3236
I3348
sV\u6536
p3237
I4599
sV\u8038
p3238
I3354
sV\u6cbb
p3239
I815
sV\u633a
p3240
I4600
sV\u8fbd
p3241
I2074
sV\u66b4
p3242
I4171
sV\u5440
p3243
I2075
sV\u70c3
p3244
I4601
sV\u5742
p3245
I4602
sV\u7ec7
p3246
I4603
sV\u7360
p3247
I3938
sV\u79c9
p3248
I2076
sV\u9ed8
p3249
I3613
sV\u664c
p3250
I816
sV\u82cf
p3251
I817
sV\u614e
p3252
I3355
sV\u6dd1
p3253
I2077
sV\u6c50
p3254
I818
sV\u6bd5
p3255
I2078
sV\u94c6
p3256
I4979
sV\u76d7
p3257
I3358
sV\u5556
p3258
I819
sV\u84e5
p3259
I4561
sV\u832c
p3260
I2600
sV\u535a
p3261
I820
sV\u9e5c
p3262
I821
sV\u7adf
p3263
I3360
sV\u795e
p3264
I2079
sV\u9791
p3265
I4371
sV\u6d66
p3266
I2080
sV\u8868
p3267
I822
sV\u6b6a
p3268
I2081
sV\u97ed
p3269
I823
sV\u566c
p3270
I4606
sV\u716e
p3271
I824
sV\u5df1
p3272
I3362
sV\u9ee9
p3273
I3939
sV\u58f3
p3274
I825
sV\u7f72
p3275
I826
sV\u8398
p3276
I4127
sV\u9a74
p3277
I2083
sV\u9edd
p3278
I4642
sV\u6078
p3279
I3364
sV\u6cfb
p3280
I2084
sV\u637a
p3281
I827
sV\u8ffd
p3282
I828
sV\u8e7c
p3283
I2085
sV\u5014
p3284
I3107
sV\u9501
p3285
I2086
sV\u5480
p3286
I829
sV\u9003
p3287
I4610
sV\u8c6a
p3288
I3325
sV\u5305
p3289
I4611
sV\u7284
p3290
I2088
sV\u74e6
p3291
I4367
sV\u50ed
p3292
I3326
sV\u840b
p3293
I4612
sV\u870d
p3294
I2089
sV\u868c
p3295
I3368
sV\u620f
p3296
I830
sV\u516c
p3297
I4563
sV\u6c90
p3298
I2090
sV\u6813
p3299
I831
sV\u8bc2
p3300
I4173
sV\u95ef
p3301
I3327
sV\u7596
p3302
I3369
sV\u7119
p3303
I2091
sV\u539a
p3304
I4614
sV\u7f1d
p3305
I2092
sV\u5e9c
p3306
I2093
sV\u5a1f
p3307
I3371
sV\u7ec4
p3308
I3529
sV\u8521
p3309
I3372
sV\u67a2
p3310
I3373
sV\u6325
p3311
I2094
sV\u62a4
p3312
I832
sV\u4e27
p3313
I3374
sV\u6da6
p3314
I3375
sV\u68a8
p3315
I833
sV\u542b
p3316
I4616
sV\u8baa
p3317
I2095
sV\u572d
p3318
I2096
sV\u7fb2
p3319
I2097
sV\u60b8
p3320
I4618
sV\u63ba
p3321
I2098
sV\u4f3d
p3322
I2099
sV\u6d74
p3323
I2695
sV\u9541
p3324
I834
sV\u94c0
p3325
I2100
sV\u5043
p3326
I835
sV\u57c2
p3327
I2101
sV\u5345
p3328
I3377
sV\u72c4
p3329
I3378
sV\u5949
p3330
I3379
sV\u6d51
p3331
I4621
sV\u56f9
p3332
I2696
sV\u6853
p3333
I2102
sV\u6fd2
p3334
I836
sV\u5657
p3335
I2103
sV\u55d6
p3336
I3380
sV\u70d8
p3337
I2104
sV\u5f5d
p3338
I4622
sV\u7edc
p3339
I2105
sV\u6151
p3340
I4771
sV\u6063
p3341
I837
sV\u8365
p3342
I2106
sV\u74a7
p3343
I1834
sV\u6de6
p3344
I4623
sV\u88e8
p3345
I3382
sV\u946b
p3346
I838
sV\u526f
p3347
I3383
sV\u71ee
p3348
I3384
sV\u5cf0
p3349
I2107
sV\u5b75
p3350
I839
sV\u65f6
p3351
I3385
sV\u8179
p3352
I3386
sV\u80f8
p3353
I4625
sV\u4e7e
p3354
I2042
sV\u8f7d
p3355
I3387
sV\u8eab
p3356
I4377
sV\u76d4
p3357
I2898
sV\u9500
p3358
I840
sV\u9602
p3359
I3388
sV\u9f87
p3360
I2109
sV\u5c06
p3361
I841
sV\u7889
p3362
I842
sV\u9ee5
p3363
I4193
sV\u658b
p3364
I3389
sV\u8703
p3365
I3943
sV\u638f
p3366
I3390
sV\u600e
p3367
I2111
sV\u7099
p3368
I4628
sV\u7118
p3369
I3391
sV\u521a
p3370
I2112
sV\u9e9d
p3371
I843
sV\u7f1c
p3372
I3392
sV\u86ca
p3373
I4204
sV\u82a5
p3374
I844
sV\u6324
p3375
I3393
sV\u4fa7
p3376
I845
sV\u6c26
p3377
I846
sV\u75ab
p3378
I847
sV\u6a2a
p3379
I848
sV\u964c
p3380
I3976
sV\u73af
p3381
I849
sV\u902e
p3382
I850
sV\u7cb1
p3383
I3394
sV\u4e09
p3384
I3944
sV\u7532
p3385
I4994
sV\u5b34
p3386
I851
sV\u67b7
p3387
I852
sV\u6f88
p3388
I1432
sV\u4fe1
p3389
I2494
sV\u75de
p3390
I4774
sV\u9535
p3391
I4844
sV\u4f3c
p3392
I853
sV\u6bbf
p3393
I854
sV\u683e
p3394
I4633
sV\u54c1
p3395
I855
sV\u9540
p3396
I4634
sV\u71c3
p3397
I4635
sV\u9642
p3398
I2114
sV\u7948
p3399
I856
sV\u65cb
p3400
I4636
sV\u5a4a
p3401
I4637
sV\u874c
p3402
I4638
sV\u83cf
p3403
I857
sV\u8d50
p3404
I4640
sV\u8e52
p3405
I2116
sV\u950f
p3406
I3946
sV\u77d7
p3407
I3397
sV\u70d9
p3408
I858
sV\u768e
p3409
I3947
sV\u7edd
p3410
I859
sV\u3002
p3411
I4547
sV\u585e
p3412
I860
sV\u81e3
p3413
I2117
sV\u793a
p3414
I4380
sV\u62e5
p3415
I861
sV\u8364
p3416
I862
sV\u6ed5
p3417
I1956
sV\u55bd
p3418
I4381
sV\u75eb
p3419
I2118
sV\u56ed
p3420
I3399
sV\u5f13
p3421
I1436
sV\u53ef
p3422
I863
sV\u743c
p3423
I1837
sV\u5e72
p3424
I2119
sV\u94e8
p3425
I2901
sV\u60f9
p3426
I4646
sV\u5c15
p3427
I3950
sV\u6dfb
p3428
I2120
sV\u733e
p3429
I4382
sV\u4efd
p3430
I3402
sV\u8f7c
p3431
I2121
sV\u8bff
p3432
I3404
sV\u59a5
p3433
I3110
sV\u5401
p3434
I4649
sV\u5580
p3435
I864
sV\u7682
p3436
I4650
sV\u5384
p3437
I865
sV\u7f07
p3438
I866
sV\u5988
p3439
I867
sV\u9a8a
p3440
I868
sV\u830f
p3441
I4651
sV\u75c5
p3442
I1995
sV\u9619
p3443
I3334
sV\u8913
p3444
I4652
sV\u4e92
p3445
I3407
sV\u607f
p3446
I5021
sV\u54ee
p3447
I4518
sV\u5019
p3448
I869
sV\u5d1b
p3449
I3408
sV\u5e1d
p3450
I870
sV\u5f9c
p3451
I2124
sV\u9b1f
p3452
I871
sV\u589e
p3453
I4654
sV\u6421
p3454
I2125
sV\u9171
p3455
I3531
sV\u6123
p3456
I4655
sV\u549a
p3457
I4570
sV\u6292
p3458
I4804
sV\u6ca6
p3459
I3409
sV\u6829
p3460
I2126
sV\u69a8
p3461
I872
sV\u752b
p3462
I3410
sV\u562d
p3463
I2127
sV\u77ac
p3464
I4656
sV\u70ae
p3465
I2128
sV\u5c31
p3466
I2129
sV\u73c9
p3467
I2488
sV\u7eb2
p3468
I2130
sV\u5bb4
p3469
I3412
sV\u8737
p3470
I2131
sV\u817a
p3471
I4678
sV\u8d3b
p3472
I2132
sV\u4e3d
p3473
I2133
sV\u6ecb
p3474
I4997
sV\u8654
p3475
I4748
sV\u56f4
p3476
I2282
sV\u5143
p3477
I873
sV\u76c2
p3478
I874
sV\u7bc7
p3479
I4500
sV\u5a77
p3480
I2904
sV\u5b99
p3481
I3733
sV\u83a0
p3482
I4572
sV\u634f
p3483
I2134
sV\u80ce
p3484
I4658
sV\u8fd8
p3485
I3025
sV\u6bd4
p3486
I3415
sV\u5757
p3487
I2135
sV\u94d6
p3488
I875
sV\u5b5f
p3489
I2136
sV\u98de
p3490
I876
sV\u8461
p3491
I2137
sV\u65e0
p3492
I2138
sV\u8f67
p3493
I4659
sV\u9650
p3494
I4383
sV\u8869
p3495
I2139
sV\u97ec
p3496
I4660
sV\u536f
p3497
I3417
sV\u5c71
p3498
I877
sV\u8e29
p3499
I3336
sV\u5973
p3500
I3418
sV\u5a75
p3501
I878
sV\u6777
p3502
I4661
sV\u8fa8
p3503
I4573
sV\u6079
p3504
I2140
sV\u9a81
p3505
I4848
sV\u632b
p3506
I2706
sV\u9600
p3507
I879
sV\u9502
p3508
I3420
sV\u5185
p3509
I2141
sV\u9004
p3510
I880
sV\u9c87
p3511
I2142
sV\u7f06
p3512
I2143
sV\u5b89
p3513
I2144
sV\u840c
p3514
I881
sV\u630e
p3515
I2145
sV\u4f91
p3516
I2146
sV\u4e10
p3517
I3422
sV\u8a93
p3518
I2147
sV\u6d12
p3519
I2148
sV\u6995
p3520
I882
sV\u752f
p3521
I3340
sV\u9497
p3522
I3423
sV\u4fea
p3523
I3226
sV\u8e85
p3524
I4182
sV\u711a
p3525
I883
sV\u56db
p3526
I5002
sV\u589f
p3527
I884
sV\u7b1e
p3528
I885
sV\u51c4
p3529
I4722
sV\u6620
p3530
I3424
sV\u795a
p3531
I2492
sV\u6ca7
p3532
I2150
sV\u4f26
p3533
I2151
sV\u8ba9
p3534
I886
sV\u6a28
p3535
I3425
sV\u8006
p3536
I2907
sV\u542c
p3537
I887
sV\u70af
p3538
I888
sV\u532e
p3539
I3426
sV\u5ab3
p3540
I2153
sV\u95f0
p3541
I4985
sV\u7834
p3542
I2154
sV\u64b7
p3543
I889
sV\u83b9
p3544
I2155
sV\u8238
p3545
I3427
sV\u8e2a
p3546
I4495
sV\u835e
p3547
I3122
sV\u7455
p3548
I4291
sV\u6b3e
p3549
I4670
sV\u5fe1
p3550
I1846
sV\u52c3
p3551
I3428
sV\u9542
p3552
I2156
sV\u4e60
p3553
I3746
sV\u86cb
p3554
I890
sV\u538b
p3555
I3924
sV\u5ae3
p3556
I4386
sV\u634e
p3557
I3429
sV\u4fd1
p3558
I891
sV\u4e50
p3559
I2158
sV\u6d52
p3560
I3431
sV\u6854
p3561
I892
sV\u54d7
p3562
I4673
sV\u9756
p3563
I3432
sV\u53d9
p3564
I2159
sV\u9edb
p3565
I2160
sV\u515a
p3566
I893
sV\u5ddd
p3567
I2161
sV\u98df
p3568
I2162
sV\u82e3
p3569
I2163
sV\u6562
p3570
I2164
sV\u54e7
p3571
I4387
sV\u6f66
p3572
I2165
sV\u9716
p3573
I4665
sV\u6377
p3574
I4519
sV\u56eb
p3575
I894
sV\u7766
p3576
I1849
sV\u95ed
p3577
I895
sV\u70ef
p3578
I2166
sV\u5ff1
p3579
I3437
sV\u53e9
p3580
I1850
sV\u8212
p3581
I3539
sV\u80eb
p3582
I2575
sV\u8776
p3583
I4677
sV\u4efb
p3584
I896
sV\u7ebe
p3585
I1445
sV\u5b51
p3586
I2662
sV\u9701
p3587
I2168
sV\u62f1
p3588
I4272
sV\u5203
p3589
I2169
sV\u5582
p3590
I3439
sV\u6db8
p3591
I4811
sV\u7b97
p3592
I2284
sV\u7c07
p3593
I897
sV\u5b09
p3594
I4679
sV\u7a88
p3595
I2170
sV\u598a
p3596
I3440
sV\u600f
p3597
I898
sV\u838e
p3598
I899
sV\u4f11
p3599
I4680
sV\u6e90
p3600
I2171
sV\u5417
p3601
I3441
sV\u5319
p3602
I900
sV\u5e1b
p3603
I3442
sV\u919a
p3604
I2172
sV\u7c9c
p3605
I901
sV\u5b9e
p3606
I4682
sV\u8721
p3607
I3443
sV\u755c
p3608
I5036
sV\u4e1a
p3609
I1639
sV\u80a4
p3610
I4683
sV\u8c27
p3611
I902
sV\u4fa6
p3612
I4685
sV\u762b
p3613
I3444
sV\u752d
p3614
I903
sV\u54ac
p3615
I3445
sV\u53ae
p3616
I904
sV\u5f31
p3617
I2175
sV\u4e49
p3618
I2711
sV\u7a33
p3619
I3446
sV\u78b4
p3620
I4688
sV\u67b6
p3621
I2176
sV\u6339
p3622
I905
sV\u82b8
p3623
I906
sV\u4e3b
p3624
I4690
sV\u541e
p3625
I2287
sV\u6d3d
p3626
I907
sV\u6cbc
p3627
I4691
sV\u8bbe
p3628
I3448
sV\u7741
p3629
I4692
sV\u96c0
p3630
I2177
sV\u5243
p3631
I908
sV\u75c2
p3632
I909
sV\u5145
p3633
I3449
sV\u5fc6
p3634
I2178
sV\u9b49
p3635
I910
sV\u664b
p3636
I2179
sV\u59ca
p3637
I2180
sV\u8da3
p3638
I3544
sV\u773a
p3639
I3822
sV\u51cc
p3640
I3953
sV\u4f51
p3641
I3450
sV\u88d4
p3642
I2181
sV\u5457
p3643
I2182
sV\u52d8
p3644
I911
sV\u86ce
p3645
I4578
sV\u7cdc
p3646
I2183
sV\u5bde
p3647
I3451
sV\u6761
p3648
I3452
sV\u6263
p3649
I912
sV\u997a
p3650
I4390
sV\u8165
p3651
I2184
sV\u80e4
p3652
I3453
sV\u8fe6
p3653
I913
sV\u55fd
p3654
I3127
sV\u766b
p3655
I4695
sV\u8026
p3656
I4789
sV\u956d
p3657
I3454
sV\u94ec
p3658
I4696
sV\u706f
p3659
I4697
sV\u53ee
p3660
I4698
sV\u5f71
p3661
I914
sV\u7ef0
p3662
I915
sV\u9a73
p3663
I916
sV\u98d2
p3664
I3955
sV\u9975
p3665
I3455
sV\u90eb
p3666
I3194
sV\u7528
p3667
I2911
sV\u4f7c
p3668
I4648
sV\u6cfc
p3669
I917
sV\u8bfe
p3670
I2185
sV\u9700
p3671
I918
sV\u962a
p3672
I4187
sV\u7085
p3673
I919
sV\u7c27
p3674
I4078
sV\u5e06
p3675
I920
sV\u7b08
p3676
I4700
sV\u818f
p3677
I2188
sV\u620e
p3678
I2189
sV\u4e91
p3679
I2190
sV\u4f10
p3680
I3456
sV\u6b93
p3681
I3457
sV\u8c12
p3682
I3458
sV\u7597
p3683
I2191
sV\u9616
p3684
I4701
sV\u9f9b
p3685
I3459
sV\u701a
p3686
I921
sV\u7a1e
p3687
I922
sV\u63a3
p3688
I2193
sV\u80a5
p3689
I923
sV\u6124
p3690
I3460
sV\u6da7
p3691
I2194
sV\u57ab
p3692
I2195
sV\u682a
p3693
I924
sV\u6760
p3694
I4707
sV\u552c
p3695
I925
sV\u51af
p3696
I2197
sV\u522e
p3697
I3461
sV\u7eb1
p3698
I3462
sV\u7f30
p3699
I2198
sV\u5bb3
p3700
I2199
sV\u5934
p3701
I926
sV\u6636
p3702
I4703
sV\u82b9
p3703
I2201
sV\u8338
p3704
I3464
sV\u6cbd
p3705
I3465
sV\u6d3c
p3706
I2202
sV\u8a3e
p3707
I927
sV\u96c1
p3708
I3467
sV\u7740
p3709
I928
sV\u90c5
p3710
I3468
sV\u5144
p3711
I2204
sV\u73e0
p3712
I1451
sV\u5ac9
p3713
I929
sV\u87cb
p3714
I930
sV\u5996
p3715
I4760
sV\u64cd
p3716
I2205
sV\u654c
p3717
I931
sV\u4f8d
p3718
I2403
sV\u624e
p3719
I3469
sV\u4ed1
p3720
I932
sV\u4f50
p3721
I2207
sV\u6bd3
p3722
I4705
sV\u68d5
p3723
I2208
sV\u6954
p3724
I933
sV\u7656
p3725
I2209
sV\u72d9
p3726
I934
sV\u505a
p3727
I935
sV\u9cdd
p3728
I4706
sV\u79df
p3729
I3471
sV\u75e4
p3730
I1452
sV\u8760
p3731
I936
sV\u63e3
p3732
I3472
sV\u6e3a
p3733
I4792
sV\u80e5
p3734
I4708
sV\u4e66
p3735
I937
sV\u62bd
p3736
I3549
sV\u77eb
p3737
I2210
sV\u5ae6
p3738
I2714
sV\u94ed
p3739
I938
sV\u556c
p3740
I4709
sV\u51ef
p3741
I939
sV\u5f70
p3742
I4710
sV\u9974
p3743
I2211
sV\u65f7
p3744
I2212
sV\u6676
p3745
I940
sV\u82f9
p3746
I941
sV\u621b
p3747
I4237
sV\u607a
p3748
I942
sV\u7b51
p3749
I3916
sV\u69ff
p3750
I2213
sV\u9601
p3751
I2214
sV\u78c1
p3752
I2295
sV\u5482
p3753
I3476
sV\u3005
p3754
I943
sV\u7184
p3755
I2216
sV\u5d07
p3756
I2217
sV\u5e86
p3757
I3477
sV\u5a09
p3758
I4713
sV\u5b88
p3759
I944
sV\u670b
p3760
I945
sV\u988a
p3761
I946
sV\u840d
p3762
I2218
sV\u658c
p3763
I2219
sV\u610f
p3764
I947
sV\u4e11
p3765
I4715
sV\u8f90
p3766
I3478
sV\u8815
p3767
I2220
sV\u6994
p3768
I2221
sV\u9517
p3769
I948
sV\u7696
p3770
I3479
sV\u5219
p3771
I949
sV\u5398
p3772
I2222
sV\u5f1b
p3773
I3480
sV\u76ee
p3774
I3349
sV\u5c1d
p3775
I950
sV\u591f
p3776
I3481
sV\u9a9e
p3777
I2223
sV\u6323
p3778
I4716
sV\u6025
p3779
I2224
sV\u8d27
p3780
I951
sV\u4ea6
p3781
I4717
sV\u8ba8
p3782
I4718
sV\u542d
p3783
I2225
sV\u712f
p3784
I3482
sV\u92ae
p3785
I3483
sV\u94c9
p3786
I3550
sV\u7cb2
p3787
I2226
sV\u5835
p3788
I2227
sV\u501f
p3789
I3753
sV\u8537
p3790
I2228
sV\u5174
p3791
I5039
sV\u8239
p3792
I4719
sV\u63b8
p3793
I4720
sV\u80ba
p3794
I3485
sV\u891a
p3795
I4372
sV\u79cb
p3796
I4189
sV\u693f
p3797
I3486
sV\u5343
p3798
I952
sV\u94c2
p3799
I4721
sV\u5177
p3800
I2717
sV\u5d47
p3801
I953
sV\u7ec6
p3802
I954
sV\u5a49
p3803
I3487
sV\u78ca
p3804
I955
sV\u65cc
p3805
I3488
sV\u62ce
p3806
I956
sV\u8e51
p3807
I957
sV\u8fd0
p3808
I2229
sV\u76d6
p3809
I4725
sV\u7259
p3810
I3489
sV\u53d8
p3811
I958
sV\u9a76
p3812
I4273
sV\u50da
p3813
I3490
sV\u6b7b
p3814
I4585
sV\u795f
p3815
I959
sV\u7ade
p3816
I4726
sV\u67e0
p3817
I2230
sV\u6363
p3818
I960
sV\u54fa
p3819
I3960
sV\u8d3c
p3820
I3466
sV\u8d67
p3821
I4729
sV\u6ee6
p3822
I4730
sV\u8f84
p3823
I2930
sV\u8be8
p3824
I3492
sV\u776b
p3825
I4731
sV\u57a6
p3826
I4397
sV\u916f
p3827
I961
sV\u72ee
p3828
I3493
sV\u7ff0
p3829
I962
sV\u5b73
p3830
I3494
sV\u5e18
p3831
I4822
sV\u9875
p3832
I3495
sV\u6577
p3833
I4732
sV\u7ecf
p3834
I4158
sV\u6279
p3835
I2231
sV\u5cb8
p3836
I2893
sV\u8f7b
p3837
I963
sV\u80fa
p3838
I2232
sV\u6c7d
p3839
I2233
sV\u6dfc
p3840
I964
sV\u897f
p3841
I965
sV\u7981
p3842
I966
sV\u7800
p3843
I4734
sV\u5f85
p3844
I2234
sV\u6bd7
p3845
I2924
sV\u5106
p3846
I967
sV\u5589
p3847
I2235
sV\u5408
p3848
I3498
sV\u888b
p3849
I2236
sV\u8e8f
p3850
I2237
sV\u8191
p3851
I4737
sV\u8010
p3852
I968
sV\u6795
p3853
I969
sV\u6614
p3854
I4738
sV\u7a97
p3855
I2238
sV\u5916
p3856
I2239
sV\u5d99
p3857
I3501
sV\u5c18
p3858
I4739
sV\u909b
p3859
I3502
sV\u7f1a
p3860
I970
sV\u6ca3
p3861
I2240
sV\u6b22
p3862
I971
sV\u4fa5
p3863
I3503
sV\u6e24
p3864
I3504
sV\u6349
p3865
I4404
sV\u65a9
p3866
I4741
sV\u8428
p3867
I2241
sV\u672a
p3868
I972
sV\u7bad
p3869
I3505
sV\u7eaf
p3870
I973
sV\u5d2e
p3871
I3506
sV\u54b3
p3872
I2242
sV\u5237
p3873
I3841
sV\u5634
p3874
I974
sV\u8936
p3875
I975
sV\u6c38
p3876
I2244
sV\u60bb
p3877
I976
sV\u4f3a
p3878
I3508
sV\u83bd
p3879
I2245
sV\u548b
p3880
I3964
sV\u60b4
p3881
I4400
sV\u79c1
p3882
I2246
sV\u7840
p3883
I977
sV\u9b42
p3884
I2247
sV\u5fc5
p3885
I978
sV\u5e44
p3886
I2249
sV\u52c7
p3887
I3509
sV\u7960
p3888
I4192
sV\u75c9
p3889
I2250
sV\u5448
p3890
I2251
sV\u68cb
p3891
I4746
sV\u574a
p3892
I4747
sV\u6bcd
p3893
I2252
sV\u9e9f
p3894
I3184
sV\u8d4e
p3895
I2253
sV\u61d1
p3896
I2254
sV\u6050
p3897
I979
sV\u84d3
p3898
I980
sV\u8352
p3899
I2255
sV\u6654
p3900
I981
sV\u6960
p3901
I4796
sV\u5956
p3902
I982
sV\u4ee5
p3903
I2300
sV\u70db
p3904
I3512
sV\u7f5a
p3905
I2257
sV\u7edb
p3906
I3433
sV\u563b
p3907
I4401
sV\u76df
p3908
I3513
sV\u6ce3
p3909
I3514
sV\u6b62
p3910
I2258
sV\u8fe5
p3911
I4750
sV\u62e7
p3912
I3515
sV\u6c10
p3913
I4589
sV\u65e9
p3914
I983
sV\u58eb
p3915
I984
sV\u9a6c
p3916
I2259
sV\u7eef
p3917
I2260
sV\u7d6e
p3918
I985
sV\u7070
p3919
I3517
sV\u97f5
p3920
I986
sV\u6df9
p3921
I4752
sV\u5b95
p3922
I1460
sV\u6f7a
p3923
I987
sV\u83fd
p3924
I988
sV\u627c
p3925
I3518
sV\u66ff
p3926
I2261
sV\u857e
p3927
I4755
sV\u7901
p3928
I3519
sV\u966a
p3929
I2927
sV\u7f05
p3930
I3520
sV\u5e84
p3931
I989
sV\u5207
p3932
I2262
sV\u9509
p3933
I2263
sV\u9488
p3934
I3521
sV\u680b
p3935
I990
sV\u8e0f
p3936
I4757
sV\u6d8e
p3937
I4758
sV\u8111
p3938
I2264
sV\u7199
p3939
I4590
sV\u6413
p3940
I991
sV\u8392
p3941
I992
sV\u8715
p3942
I2265
sV\u6fef
p3943
I1651
sV\u9996
p3944
I2266
sV\u7c98
p3945
I993
sV\u901b
p3946
I994
sV\u9f9a
p3947
I2267
sV\u531d
p3948
I995
sV\u961f
p3949
I996
sV\u8c23
p3950
I997
sV\u8ba2
p3951
I2269
sV\u4ea4
p3952
I2270
sV\u81a6
p3953
I2271
sV\u568f
p3954
I3810
sV\u67aa
p3955
I3525
sV\u9e2f
p3956
I2272
sV\u5e1c
p3957
I4592
sV\u7131
p3958
I998
sV\u90b0
p3959
I999
sV\u7433
p3960
I3526
sV\u73b2
p3961
I2273
sV\u6d39
p3962
I1000
sV\u6cb8
p3963
I4765
sV\u803b
p3964
I2274
sV\u633d
p3965
I1001
sV\u8e4b
p3966
I3758
sV\u5941
p3967
I3528
sV\u6446
p3968
I3068
sV\u5bc2
p3969
I2275
sV\u7f45
p3970
I4768
sV\u9ec4
p3971
I2276
sV\u7247
p3972
I2277
sV\u51c6
p3973
I2278
sV\u9549
p3974
I1002
sV\u54c8
p3975
I4769
sV\u90a3
p3976
I2723
sV\u4e4f
p3977
I1003
sV\u8dce
p3978
I4770
sV\u8151
p3979
I1004
sV\u63d2
p3980
I1005
sV\u86d4
p3981
I2279
sV\u7a57
p3982
I1006
sV\u905b
p3983
I4772
sV\u965f
p3984
I4773
sV\u811a
p3985
I4059
sV\u68e0
p3986
I2280
sV\u8be2
p3987
I1007
sV\u4ee4
p3988
I1008
sV\u6267
p3989
I1009
sV\u61e6
p3990
I4775
sV\u586b
p3991
I3530
sV\u5c4a
p3992
I4556
sV\u5dee
p3993
I4777
sV\u5171
p3994
I1010
sV\u5473
p3995
I3532
sV\u55d2
p3996
I1862
sV\u76f4
p3997
I1011
sV\u9f8c
p3998
I3081
sV\u6cf8
p3999
I1012
sV\u607b
p4000
I4779
sV\u4ffa
p4001
I4780
sV\u62fc
p4002
I1013
sV\u9881
p4003
I4781
sV\u5f04
p4004
I3534
sV\u7387
p4005
I3535
sV\u9006
p4006
I3536
sV\u9489
p4007
I4783
sV\u9508
p4008
I1014
sV\u7cd7
p4009
I3742
sV\u4f8f
p4010
I4784
sV\u8c0e
p4011
I3537
sV\u8110
p4012
I1015
sV\u6593
p4013
I3538
sV\u6212
p4014
I2283
sV\u8695
p4015
I4785
sV\u6714
p4016
I4786
sV\u5b97
p4017
I1016
sV\u7816
p4018
I1017
sV\u5c99
p4019
I3540
sV\u987e
p4020
I4032
sV\u519b
p4021
I1018
sV\u5e1a
p4022
I2285
sV\u529d
p4023
I3542
sV\u731c
p4024
I3543
sV\u779f
p4025
I2286
sV\u6f84
p4026
I1657
sV\u5733
p4027
I4880
sV\u6da3
p4028
I2288
sV\u4ea5
p4029
I3545
sV\u4f24
p4030
I4788
sV\u63a7
p4031
I2289
sV\u6026
p4032
I1019
sV\u892a
p4033
I4667
sV\u5320
p4034
I3928
sV\u7b2c
p4035
I2290
sV\u7faf
p4036
I1020
sV\u94dc
p4037
I3763
sV\u90b1
p4038
I2291
sV\u7130
p4039
I2292
sV\u55b3
p4040
I2293
sV\u6bb7
p4041
I1021
sV\u6cb9
p4042
I3546
sV\u8d38
p4043
I3547
sV\u4e3a
p4044
I3548
sV\u82bd
p4045
I2294
sV\u58c1
p4046
I1022
sV\u7940
p4047
I1023
sV\u7ec5
p4048
I2296
sV\u7f44
p4049
I1024
sV\u54c9
p4050
I1025
sV\u7548
p4051
I1026
sV\u5272
p4052
I2302
sV\u6b4c
p4053
I1027
sV\u4fcf
p4054
I3551
sV\u60d1
p4055
I2297
sV\u8150
p4056
I4793
sV\u6252
p4057
I3552
sV\u4f0f
p4058
I2307
sV\u7cd9
p4059
I1028
sV\u7965
p4060
I3144
sV\u51db
p4061
I4794
sV\u535c
p4062
I3554
sV\u57df
p4063
I4795
sV\u745e
p4064
I2299
sV\u8881
p4065
I4181
sV\u7011
p4066
I2932
sV\u5524
p4067
I3930
sV\u6ee5
p4068
I1029
sV\u4f64
p4069
I3555
sV\u8568
p4070
I1030
sV\u7aed
p4071
I4797
sV\u5b6c
p4072
I4798
sV\u9170
p4073
I2301
sV\u7272
p4074
I1031
sV\u56f5
p4075
I3556
sV\u9774
p4076
I2303
sV\u8bf7
p4077
I3557
sV\u6876
p4078
I1032
sV\u82cd
p4079
I3245
sV\u6d78
p4080
I3558
sV\u81fb
p4081
I3559
sV\u793e
p4082
I3974
sV\u62fd
p4083
I4800
sV\u837c
p4084
I2304
sV\u67ff
p4085
I2305
sV\u7801
p4086
I3560
sV\u7980
p4087
I2306
sV\u9a82
p4088
I1033
sV\u5e05
p4089
I4801
sV\u5f84
p4090
I1034
sV\u7409
p4091
I3563
sV\u6f0f
p4092
I1035
sV\u8c19
p4093
I2934
sV\u8513
p4094
I4803
sV\u8292
p4095
I1036
sV\u6615
p4096
I3564
sV\u9a79
p4097
I3177
sV\u5b17
p4098
I3565
sV\u9896
p4099
I2308
sV\u5e9a
p4100
I4805
sV\u521d
p4101
I1037
sV\u571f
p4102
I3566
sV\u949e
p4103
I2309
sV\u6821
p4104
I2310
sV\u8d23
p4105
I1038
sV\u4e9a
p4106
I4198
sV\u4e25
p4107
I1039
sV\u6ec7
p4108
I3975
sV\u8327
p4109
I1040
sV\u60a6
p4110
I3569
sV\u592b
p4111
I4807
sV\u86aa
p4112
I2312
sV\u7530
p4113
I2452
sV\u5f2f
p4114
I4808
sV\u7cae
p4115
I2313
sV\u51b0
p4116
I3570
sV\u7533
p4117
I3571
sV\u52b2
p4118
I1041
sV\u9635
p4119
I4810
sV\u671f
p4120
I4199
sV\u8db8
p4121
I1042
sV\u4eba
p4122
I1043
sV\u873f
p4123
I2315
sV\u80f4
p4124
I4410
sV\u8821
p4125
I3568
sV\u5ac2
p4126
I2316
sV\u9e45
p4127
I1044
sV\u5347
p4128
I1045
sV\u8bd9
p4129
I4384
sV\u76ca
p4130
I1046
sV\u4f4f
p4131
I1047
sV\u564c
p4132
I1469
sV\u62d2
p4133
I1048
sV\u6655
p4134
I4813
sV\u67d4
p4135
I3575
sV\u5b57
p4136
I2318
sV\u6e25
p4137
I2311
sV\u7eda
p4138
I4814
sV\u575f
p4139
I2319
sV\u8861
p4140
I2320
sV\u8dd1
p4141
I3356
sV\u6d63
p4142
I1049
sV\u8fe4
p4143
I3576
sV\u6367
p4144
I1050
sV\u60e6
p4145
I4817
sV\u8469
p4146
I2321
sV\u65e8
p4147
I2322
sV\u8bf4
p4148
I4055
sV\u9a6d
p4149
I3578
sV\u51f0
p4150
I2323
sV\u9573
p4151
I1051
sV\u5f52
p4152
I3977
sV\u9675
p4153
I3579
sV\u507f
p4154
I3145
sV\u6c79
p4155
I2324
sV\u8bd5
p4156
I3357
sV\u817b
p4157
I1052
sV\u677f
p4158
I4818
sV\u5b81
p4159
I2325
sV\u7a00
p4160
I4819
sV\u72f1
p4161
I4868
sV\u5c04
p4162
I3581
sV\u5306
p4163
I1053
sV\u9608
p4164
I1054
sV\u9556
p4165
I3359
sV\u771f
p4166
I4806
sV\u6c8f
p4167
I3583
sV\u4f0e
p4168
I1055
sV\u6210
p4169
I4820
sV\u8693
p4170
I2326
sV\u8a79
p4171
I3806
sV\u7897
p4172
I2327
sV\u9f99
p4173
I1056
sV\u8885
p4174
I4414
sV\u529b
p4175
I1057
sV\u7f00
p4176
I5022
sV\u501c
p4177
I4823
sV\u949f
p4178
I3586
sV\u971e
p4179
I4824
sV\u8ba1
p4180
I1058
sV\u835a
p4181
I2739
sV\u8c24
p4182
I2328
sV\u6628
p4183
I3588
sV\u5533
p4184
I4809
sV\u7f2e
p4185
I4826
sV\u901e
p4186
I4939
sV\u5230
p4187
I1059
sV\u949c
p4188
I5008
sV\u75b5
p4189
I3589
sV\u5434
p4190
I1060
sV\u6308
p4191
I4415
sV\u8fb9
p4192
I2330
sV\u4e38
p4193
I1061
sV\u8d3a
p4194
I1062
sV\u5f8b
p4195
I4416
sV\u84bf
p4196
I4828
sV\u5a40
p4197
I2332
sV\u4fd0
p4198
I4724
sV\u5baa
p4199
I3991
sV\u5dc5
p4200
I1063
sV\u8fc2
p4201
I4325
sV\u7941
p4202
I4767
sV\u9648
p4203
I4831
sV\u954a
p4204
I2333
sV\u684c
p4205
I1064
sV\u4f4e
p4206
I4834
sV\u9762
p4207
I2740
sV\u85d5
p4208
I3590
sV\u6454
p4209
I1065
sV\u7b56
p4210
I2334
sV\u5fd9
p4211
I2335
sV\u51dd
p4212
I2336
sV\u505c
p4213
I3591
sV\u54df
p4214
I4835
sV\u575e
p4215
I1066
sV\u6be1
p4216
I1067
sV\u4ee3
p4217
I4837
sV\u6eba
p4218
I2314
sV\u6c64
p4219
I4838
sV\u80e7
p4220
I2337
sV\u67e9
p4221
I1068
sV\u523d
p4222
I1666
sV\u8d66
p4223
I3361
sV\u786c
p4224
I3594
sV\u7cef
p4225
I2338
sV\u7f6e
p4226
I1069
sV\u53f1
p4227
I3595
sV\u96f3
p4228
I3596
sV\u7172
p4229
I1070
sV\u95f5
p4230
I1071
sV\u9885
p4231
I5024
sV\u5ef6
p4232
I4448
sV\u8ff9
p4233
I1072
sV\u9095
p4234
I4418
sV\u607c
p4235
I3597
sV\u677e
p4236
I1073
sV\u5e03
p4237
I2339
sV\u5982
p4238
I3598
sV\u79c0
p4239
I3573
sV\u9709
p4240
I2340
sV\u7688
p4241
I2341
sV\u558a
p4242
I3601
sV\u690d
p4243
I3602
sV\u8d43
p4244
I2939
sV\u6c0f
p4245
I1074
sV\u8f8e
p4246
I1075
sV\u6311
p4247
I3603
sV\u6613
p4248
I1076
sV\u82ef
p4249
I2742
sV\u7f19
p4250
I2342
sV\u5e45
p4251
I3574
sV\u521b
p4252
I3604
sV\u516e
p4253
I2082
sV\u6dcb
p4254
I4950
sV\u709c
p4255
I1077
sV\u541f
p4256
I3605
sV\u4fc4
p4257
I4202
sV\u6b21
p4258
I2343
sV\u6e23
p4259
I4842
sV\u6d25
p4260
I2344
sV\u6027
p4261
I4843
sV\u7949
p4262
I4620
sV\u66a8
p4263
I1078
sV\u85aa
p4264
I2345
sV\u592d
p4265
I2346
sV\u5fae
p4266
I1079
sV\u9633
p4267
I2347
sV\u51b2
p4268
I1080
sV\u7535
p4269
I1081
sV\u8d22
p4270
I4992
sV\u6837
p4271
I3607
sV\u8bb6
p4272
I3608
sV\u4f83
p4273
I4254
sV\u7a74
p4274
I3363
sV\u9b41
p4275
I1082
sV\u914a
p4276
I2489
sV\u56ca
p4277
I2317
sV\u9cc4
p4278
I2348
sV\u5047
p4279
I1083
sV\u7f20
p4280
I3149
sV\u76c8
p4281
I3611
sV\u5883
p4282
I4893
sV\u75ca
p4283
I1084
sV\u884c
p4284
I4833
sV\u4fce
p4285
I2349
sV\u62d0
p4286
I3612
sV\u6653
p4287
I2350
sV\u61d2
p4288
I1085
sV\u6555
p4289
I4847
sV\u7ed8
p4290
I2351
sV\u725b
p4291
I1086
sV\u915d
p4292
I2352
sV\u7cfb
p4293
I1479
sV\u745f
p4294
I1087
sV\u915a
p4295
I3434
sV\u94b3
p4296
I4742
sV\u8be1
p4297
I4836
sV\u94a7
p4298
I3111
sV\u796d
p4299
I2353
sV\u5c6f
p4300
I3616
sV\u5e7c
p4301
I3983
sV\u5371
p4302
I1088
sV\u72f0
p4303
I1089
sV\u5e42
p4304
I4947
sV\u82d2
p4305
I4812
sV\u74f4
p4306
I1090
sV\u8877
p4307
I1091
sV\u6328
p4308
I3776
sV\u8dfa
p4309
I2354
sV\u8ff8
p4310
I4890
sV\u87fe
p4311
I2355
sV\u7a81
p4312
I1092
sV\u5501
p4313
I4609
sV\u9f83
p4314
I2356
sV\u5802
p4315
I1093
sV\u9c85
p4316
I4849
sV\u9187
p4317
I2358
sV\u5206
p4318
I1094
sV\u5708
p4319
I3617
sV\u6b8b
p4320
I3618
sV\u540a
p4321
I1095
sV\u888d
p4322
I4851
sV\u4e0e
p4323
I1096
sV\u6291
p4324
I1097
sV\u6012
p4325
I2361
sV\u6495
p4326
I1098
sV\u5a01
p4327
I4871
sV\u9997
p4328
I3620
sV\u5e99
p4329
I3621
sV\u7f18
p4330
I3622
sV\u739b
p4331
I2362
sV\u5c1a
p4332
I2363
sV\u909d
p4333
I1099
sV\u759f
p4334
I2364
sV\u6b20
p4335
I3623
sV\u4fa3
p4336
I1100
sV\u8822
p4337
I4853
sV\u6ca5
p4338
I4854
sV\u8d24
p4339
I2365
sV\u61a7
p4340
I2366
sV\u86a9
p4341
I1101
sV\u6728
p4342
I3625
sV\u7bab
p4343
I1102
sV\u642a
p4344
I1103
sV\u5e2e
p4345
I3626
sV\u52b1
p4346
I4855
sV\u77b3
p4347
I1104
sV\u94b5
p4348
I2368
sV\u9534
p4349
I3627
sV\u69b7
p4350
I1105
sV\u9888
p4351
I3366
sV\u4f38
p4352
I1106
sV\u80bd
p4353
I2369
sV\u686b
p4354
I4178
sV\u663e
p4355
I4856
sV\u5ac1
p4356
I1107
sV\u5b40
p4357
I2370
sV\u5fc3
p4358
I3628
sV\u7cc5
p4359
I2371
sV\u91c7
p4360
I1108
sV\u96c9
p4361
I3631
sV\u670d
p4362
I3367
sV\u8bcb
p4363
I1109
sV\u544a
p4364
I4858
sV\u68cd
p4365
I2372
sV\u8d63
p4366
I4815
sV\u62b9
p4367
I3463
sV\u82d1
p4368
I3633
sV\u6350
p4369
I1110
sV\u67d3
p4370
I4861
sV\u6052
p4371
I3634
sV\u59d7
p4372
I4862
sV\u6f7c
p4373
I3403
sV\u7ed9
p4374
I1111
sV\u53db
p4375
I4863
sV\u618e
p4376
I4613
sV\u90dd
p4377
I4864
sV\u515c
p4378
I3635
sV\u5499
p4379
I3232
sV\u765e
p4380
I2373
sV\u552f
p4381
I4575
sV\u6862
p4382
I2374
sV\u6ce5
p4383
I1112
sV\u8d64
p4384
I1113
sV\u81e7
p4385
I2375
sV\u6768
p4386
I4867
sV\u70e6
p4387
I4209
sV\u86d9
p4388
I3937
sV\u6469
p4389
I3577
sV\u77f3
p4390
I2376
sV\u5f92
p4391
I2749
sV\u94f5
p4392
I1114
sV\u7574
p4393
I3638
sV\u75e8
p4394
I1672
sV\u835f
p4395
I4364
sV\u8f78
p4396
I2377
sV\u80fd
p4397
I1115
sV\u817c
p4398
I2378
sV\u85ff
p4399
I3640
sV\u667e
p4400
I1116
sV\u8c8c
p4401
I3750
sV\u6ec1
p4402
I1876
sV\u5f03
p4403
I2380
sV\u9882
p4404
I1117
sV\u9609
p4405
I2381
sV\u5782
p4406
I3365
sV\u948a
p4407
I1118
sV\u4e8e
p4408
I3641
sV\u6211
p4409
I3642
sV\u6390
p4410
I2382
sV\u8713
p4411
I4873
sV\u4f6f
p4412
I2943
sV\u7a96
p4413
I3643
sV\u8f9c
p4414
I4040
sV\u5f98
p4415
I2383
sV\u731b
p4416
I4874
sV\u5c9a
p4417
I4875
sV\u901d
p4418
I3644
sV\u519c
p4419
I2384
sV\u751f
p4420
I4876
sV\u6a21
p4421
I2385
sV\u68a2
p4422
I3645
sV\u8c25
p4423
I3646
sV\u6da4
p4424
I1119
sV\u8e48
p4425
I3898
sV\u82a6
p4426
I2386
sV\u87a8
p4427
I4878
sV\u7b2b
p4428
I3647
sV\u9646
p4429
I2523
sV\u9eef
p4430
I3516
sV\u7d2f
p4431
I3648
sV\u7231
p4432
I1120
sV\u73b0
p4433
I4879
sV\u6ba1
p4434
I4825
sV\u50b2
p4435
I1121
sV\u7435
p4436
I1122
sV\u75b4
p4437
I4881
sV\u4e39
p4438
I2388
sV\u599e
p4439
I4615
sV\u803d
p4440
I4883
sV\u653f
p4441
I3649
sV\u5c45
p4442
I3650
sV\u9662
p4443
I2775
sV\u884d
p4444
I1123
sV\u69cc
p4445
I3651
sV\u6d4f
p4446
I2389
sV\u4ece
p4447
I2390
sV\u6251
p4448
I4885
sV\u8c79
p4449
I3580
sV\u6753
p4450
I2391
sV\u5957
p4451
I2392
sV\u5ad6
p4452
I3654
sV\u5fd8
p4453
I1124
sV\u91dc
p4454
I3655
sV\u56de
p4455
I3656
sV\u6a61
p4456
I3657
sV\u8be0
p4457
I3658
sV\u4f63
p4458
I2394
sV\u6de4
p4459
I2395
sV\u6167
p4460
I1125
sV\u82e6
p4461
I1126
sV\u8be9
p4462
I4675
sV\u987a
p4463
I4427
sV\u59ec
p4464
I2396
sV\u7eee
p4465
I3660
sV\u53f0
p4466
I2397
sV\u9773
p4467
I1127
sV\u5475
p4468
I1128
sV\u75f4
p4469
I1129
sV\u6977
p4470
I4889
sV\u4ff8
p4471
I2398
sV\u837b
p4472
I1130
sV\u9b03
p4473
I5043
sV\u607d
p4474
I2399
sV\u81fc
p4475
I4892
sV\u5154
p4476
I1882
sV\u56df
p4477
I4749
sV\u5f02
p4478
I1131
sV\u5b85
p4479
I2401
sV\u5a04
p4480
I3663
sV\u7687
p4481
I3664
sV\u5506
p4482
I1132
sV\u5189
p4483
I2402
sV\u972d
p4484
I4617
sV\u6e56
p4485
I1883
sV\u6f8d
p4486
I1133
sV\u8e0c
p4487
I1134
sV\u690e
p4488
I2404
sV\u6591
p4489
I1135
sV\u6410
p4490
I4896
sV\u8093
p4491
I2405
sV\u8712
p4492
I3665
sV\u8214
p4493
I1136
sV\u5e97
p4494
I1137
sV\u5d16
p4495
I2406
sV\u9999
p4496
I1138
sV\u8d85
p4497
I4215
sV\u549b
p4498
I1139
sV\u62d7
p4499
I2570
sV\u961c
p4500
I2407
sV\u529f
p4501
I1140
sV\u911e
p4502
I4897
sV\u6da1
p4503
I4898
sV\u8d31
p4504
I3992
sV\u4f22
p4505
I2409
sV\u8ba5
p4506
I1141
sV\u66a7
p4507
I2410
sV\u61a9
p4508
I4899
sV\u6028
p4509
I3668
sV\u5cab
p4510
I2411
sV\u632a
p4511
I1142
sV\u992e
p4512
I1143
sV\u75b1
p4513
I3670
sV\u7430
p4514
I2412
sV\u70b3
p4515
I1144
sV\u9732
p4516
I1145
sV\u5608
p4517
I3582
sV\u6838
p4518
I2413
sV\u6b3a
p4519
I4902
sV\u663c
p4520
I2414
sV\u62bf
p4521
I1146
sV\u813e
p4522
I1147
sV\u5c40
p4523
I2415
sV\u7f42
p4524
I3671
sV\u5bc5
p4525
I1148
sV\u96c7
p4526
I1149
sV\u5546
p4527
I4903
sV\u51c9
p4528
I1150
sV\u5048
p4529
I2416
sV\u534a
p4530
I4904
sV\u4e4c
p4531
I2417
sV\u5986
p4532
I3202
sV\u77ed
p4533
I4605
sV\u63fd
p4534
I4754
sV\u6254
p4535
I1151
sV\u70b8
p4536
I3993
sV\u5858
p4537
I3673
sV\u94db
p4538
I2418
sV\u5b5a
p4539
I1152
sV\u565c
p4540
I3674
sV\u52df
p4541
I4905
sV\u715e
p4542
I2420
sV\u6de1
p4543
I1153
sV\u6c60
p4544
I4906
sV\u68e3
p4545
I3676
sV\u6f62
p4546
I2421
sV\u8be5
p4547
I4907
sV\u6566
p4548
I2422
sV\u592e
p4549
I3669
sV\u836a
p4550
I3677
sV\u9e6c
p4551
I2423
sV\u7aef
p4552
I2424
sV\u996e
p4553
I4909
sV\u75f1
p4554
I4910
sV\u7470
p4555
I3679
sV\u53f5
p4556
I3680
sV\u9274
p4557
I2425
sV\u4ef7
p4558
I1154
sV\u8d76
p4559
I4911
sV\u830e
p4560
I3421
sV\u79be
p4561
I1488
sV\u62ff
p4562
I2426
sV\u6414
p4563
I4821
sV\u806a
p4564
I3786
sV\u7a84
p4565
I2427
sV\u54c0
p4566
I4619
sV\u7109
p4567
I3682
sV\u9088
p4568
I3683
sV\u8c0b
p4569
I4914
sV\u4f0d
p4570
I4915
sV\u4e8c
p4571
I1155
sV\u5242
p4572
I4499
sV\u8511
p4573
I2428
sV\u5f99
p4574
I3585
sV\u603b
p4575
I3527
sV\u5919
p4576
I1156
sV\u7898
p4577
I1157
sV\u541b
p4578
I3684
sV\u5b9a
p4579
I4918
sV\u969c
p4580
I4919
sV\u6e86
p4581
I4122
sV\u8d21
p4582
I3685
sV\u761f
p4583
I4762
sV\u6627
p4584
I4920
sV\u60a8
p4585
I1158
sV\u71ac
p4586
I4574
sV\u83aa
p4587
I2429
sV\u7f2d
p4588
I1159
sV\u7eac
p4589
I4921
sV\u8bb7
p4590
I4791
sV\u59ae
p4591
I1160
sV\u7531
p4592
I1161
sV\u94b0
p4593
I1162
sV\u548f
p4594
I3890
sV\u8bba
p4595
I3687
sV\u673d
p4596
I1163
sV\u623f
p4597
I3688
sV\u61be
p4598
I2432
sV\u7ba1
p4599
I4220
sV\u5bdf
p4600
I4643
sV\u8bca
p4601
I3996
sV\u9b45
p4602
I1164
sV\u7ebd
p4603
I2771
sV\u9647
p4604
I3689
sV\u5a20
p4605
I4221
sV\u9149
p4606
I1165
sV\u70c8
p4607
I3691
sV\u73ca
p4608
I1166
sV\u4f4d
p4609
I3692
sV\u69ce
p4610
I1167
sV\u6551
p4611
I4925
sV\u67d2
p4612
I1168
sV\u6355
p4613
I4927
sV\u82d4
p4614
I2434
sV\u9e57
p4615
I4928
sV\u98d8
p4616
I3694
sV\u745b
p4617
I1169
sV\u91ce
p4618
I3997
sV\u575d
p4619
I4929
sV\u725f
p4620
I1170
sV\u6c24
p4621
I3587
sV\u8d61
p4622
I2436
sV\u6ce0
p4623
I2437
sV\u6863
p4624
I1171
sV\u8fe2
p4625
I1172
sV\u6b65
p4626
I3695
sV\u65e6
p4627
I4931
sV\u8169
p4628
I2438
sV\u60e8
p4629
I2439
sV\u63ea
p4630
I4932
sV\u5f6d
p4631
I1173
sV\u9a6f
p4632
I1174
sV\u94f0
p4633
I4933
sV\u5375
p4634
I1175
sV\u6979
p4635
I2440
sV\u88f8
p4636
I4934
sV\u620d
p4637
I3250
sV\u8bfa
p4638
I2441
sV\u66fc
p4639
I1176
sV\u627f
p4640
I4935
sV\u81fe
p4641
I2442
sV\u5c81
p4642
I2443
sV\u7f9a
p4643
I3523
sV\u5983
p4644
I4937
sV\u5e02
p4645
I1177
sV\u9a85
p4646
I4938
sV\u5406
p4647
I1178
sV\u7089
p4648
I1179
sV\u8d8b
p4649
I2445
sV\u520a
p4650
I1180
sV\u8d94
p4651
I3333
sV\u680e
p4652
I2446
sV\u6491
p4653
I1181
sV\u69d0
p4654
I3264
sV\u6c82
p4655
I4430
sV\u6295
p4656
I1182
sV\u8314
p4657
I1183
sV\u5f97
p4658
I1184
sV\u5c16
p4659
I2447
sV\u5899
p4660
I3696
sV\u7a1a
p4661
I1185
sV\u971c
p4662
I2448
sV\u539f
p4663
I1186
sV\u7984
p4664
I2534
sV\u6ca1
p4665
I4940
sV\u4e22
p4666
I2450
sV\u8426
p4667
I4942
sV\u80a9
p4668
I1187
sV\u622a
p4669
I1188
sV\u7ead
p4670
I3697
sV\u9edc
p4671
I3381
sV\u94b1
p4672
I2451
sV\u5530
p4673
I1189
sV\u51b3
p4674
I2453
sV\u9632
p4675
I1190
sV\u7334
p4676
I2454
sV\u8c36
p4677
I1191
sV\u55b5
p4678
I4827
sV\u9f0b
p4679
I4431
sV\u7434
p4680
I2329
sV\u79c3
p4681
I4946
sV\u9e42
p4682
I2455
sV\u9ac5
p4683
I3700
sV\u9b44
p4684
I4948
sV\u5446
p4685
I4949
sV\u5148
p4686
I2456
sV\u8dcb
p4687
I1192
sV\u524a
p4688
I4951
sV\u4ecd
p4689
I1193
sV\u8bcf
p4690
I1194
sV\u684e
p4691
I3701
sV\u6652
p4692
I3702
sV\u82d5
p4693
I3703
sV\u8354
p4694
I4953
sV\u5fd7
p4695
I4954
sV\u6e38
p4696
I2331
sV\u98d9
p4697
I4955
sV\u5958
p4698
I3704
sV\u9a97
p4699
I3500
sV\u5a5a
p4700
I1195
sV\u5f20
p4701
I4420
sV\u53df
p4702
I4956
sV\u705e
p4703
I2457
sV\u6ce1
p4704
I1196
sV\u8d60
p4705
I1197
sV\u89e3
p4706
I2458
sV\u83ca
p4707
I4326
sV\u632f
p4708
I2785
sV\u60e9
p4709
I1198
sV\u6168
p4710
I4958
sV\u5deb
p4711
I1199
sV\u626a
p4712
I2459
sV\u7eed
p4713
I4959
sV\u5f6c
p4714
I4960
sV\u786e
p4715
I1200
sV\u9570
p4716
I2460
sV\u51f3
p4717
I1201
sV\u5492
p4718
I3161
sV\u94bf
p4719
I4225
sV\u8ff7
p4720
I3706
sV\u6c76
p4721
I1202
sV\u88f9
p4722
I1203
sV\u6015
p4723
I3793
sV\u85fb
p4724
I3707
sV\u573e
p4725
I2957
sV\u4ed4
p4726
I4482
sV\u7968
p4727
I4025
sV\u6668
p4728
I4839
sV\u8bc1
p4729
I2958
sV\u7e82
p4730
I4964
sV\u5a05
p4731
I4965
sV\u56d4
p4732
I4177
sV\u9707
p4733
I4966
sV\u5486
p4734
I3708
sV\u9009
p4735
I2461
sV\u5188
p4736
I1204
sV\u6d0b
p4737
I1205
sV\u728a
p4738
I4967
sV\u6e0d
p4739
I3709
sV\u7ec3
p4740
I4829
sV\u6170
p4741
I2928
sV\u6590
p4742
I2462
sV\u59d0
p4743
I3881
sV\u5942
p4744
I4830
sV\u6215
p4745
I3710
sV\u626f
p4746
I4005
sV\u5f17
p4747
I3711
sV\u5c96
p4748
I4970
sV\u9a9a
p4749
I2463
sV\u6c21
p4750
I2464
sV\u6ea2
p4751
I3713
sV\u8ba4
p4752
I4973
sV\u6029
p4753
I2465
sV\u61a8
p4754
I1206
sV\u7d2b
p4755
I3714
sV\u82aa
p4756
I2466
sV\u5e2d
p4757
I2467
sV\u5431
p4758
I2468
sV\u7235
p4759
I1207
sV\u6839
p4760
I1208
sV\u7b75
p4761
I2108
sV\u853b
p4762
I2469
sV\u7acb
p4763
I4226
sV\u745c
p4764
I5003
sV\u80be
p4765
I3716
sV\u5c41
p4766
I3717
sV\u554a
p4767
I4832
sV\u6096
p4768
I2617
sV\u5bc4
p4769
I4978
sV\u5747
p4770
I1209
sV\u54c6
p4771
I2470
sV\u6d4b
p4772
I2471
sV\u4e4d
p4773
I3719
sV\u7f8a
p4774
I4470
sV\u7ce8
p4775
I1329
sV\u85d0
p4776
I2472
sV\u8153
p4777
I3720
sV\u7f57
p4778
I1210
sV\u9cd6
p4779
I1211
sV\u79d8
p4780
I2474
sV\u955b
p4781
I4982
sV\u77dc
p4782
I2475
sV\u5664
p4783
I2574
sV\u8c61
p4784
I2476
sV\u73d1
p4785
I1690
sV\u6963
p4786
I1212
sV\u8be4
p4787
I3722
sV\u84e6
p4788
I1213
sV\u8069
p4789
I2477
sV\u9e6d
p4790
I3724
sV\u63aa
p4791
I3686
sV\u5471
p4792
I1214
sV\u75f0
p4793
I1215
sV\u8bd8
p4794
I3172
sV\u76f2
p4795
I3726
sV\u7275
p4796
I2478
sV\u5a7f
p4797
I2763
sV\u4ea2
p4798
I4972
sV\u867d
p4799
I3727
sV\u4f2b
p4800
I4435
sV\u74a9
p4801
I4186
sV\u7f81
p4802
I1216
sV\u7a83
p4803
I3728
sV\u5d02
p4804
I1217
sV\u7985
p4805
I1218
sV\u7487
p4806
I3729
sV\u5706
p4807
I1219
sV\u7389
p4808
I1220
sV\u4e8b
p4809
I4987
sV\u710a
p4810
I2481
sV\u8c0c
p4811
I1221
sV\u688f
p4812
I3731
sV\u4f7b
p4813
I3496
sV\u6293
p4814
I3732
sV\u6512
p4815
I2482
sV\u6014
p4816
I4988
sV\u5c97
p4817
I1222
sV\u7f16
p4818
I1223
sV\u98d5
p4819
I2844
sV\u5a18
p4820
I4989
sV\u591a
p4821
I2484
sV\u559d
p4822
I3734
sV\u62db
p4823
I2963
sV\u9c9c
p4824
I4681
sV\u6e20
p4825
I3735
sV\u798f
p4826
I3148
sV\u8d5a
p4827
I2964
sV\u5750
p4828
I1881
sV\u5f87
p4829
I4626
sV\u6726
p4830
I1224
sV\u63a9
p4831
I4993
sV\u7eab
p4832
I1225
sV\u8c06
p4833
I2764
sV\u5c2c
p4834
I1226
sV\u5889
p4835
I2110
sV\u52b3
p4836
I2485
sV\u9532
p4837
I1227
sV\u51b5
p4838
I4995
sV\u5965
p4839
I4407
sV\u4f36
p4840
I3736
sV\u8bb9
p4841
I2486
sV\u975e
p4842
I3592
sV\u65bd
p4843
I3737
sV\u80bf
p4844
I4996
sV\u7fc1
p4845
I2487
sV\u5be1
p4846
I1698
sV\u826e
p4847
I4114
sV\u54c7
p4848
I3738
sV\u53c9
p4849
I1228
sV\u7248
p4850
I1229
sV\u4ecb
p4851
I3739
sV\u7eb6
p4852
I1897
sV\u82e5
p4853
I4644
sV\u67d1
p4854
I2490
sV\u8650
p4855
I4999
sV\u82d3
p4856
I1230
sV\u98e8
p4857
I2762
sV\u8054
p4858
I5001
sV\u9cd7
p4859
I2491
sV\u76db
p4860
I3743
sV\u595a
p4861
I1231
sV\u55dd
p4862
I2493
sV\u545c
p4863
I3744
sV\u70df
p4864
I3745
sV\u535e
p4865
I1232
sV\u6fe1
p4866
I1233
sV\u5c91
p4867
I1498
sV\u8d62
p4868
I3747
sV\u89e5
p4869
I5004
sV\u70e7
p4870
I2966
sV\u7490
p4871
I1780
sV\u843d
p4872
I5054
sV\u7eeb
p4873
I2495
sV\u75bc
p4874
I4438
sV\u97e9
p4875
I4230
sV\u7572
p4876
I1234
sV\u9074
p4877
I2496
sV\u4f76
p4878
I2497
sV\u8bf9
p4879
I1235
sV\u7600
p4880
I4662
sV\u64a9
p4881
I4790
sV\uff01
p4882
I2186
sV\u5a03
p4883
I2498
sV\u756a
p4884
I1701
sV\u9884
p4885
I3749
sV\u5288
p4886
I1236
sV\u4e0b
p4887
I2499
sV\u718a
p4888
I5007
sV\u6c8c
p4889
I2500
sV\u680f
p4890
I1237
sV\u8c1a
p4891
I4261
sV\u9ed1
p4892
I2842
sV\u6115
p4893
I3751
sV\u6094
p4894
I2501
sV\u7b19
p4895
I2502
sV\u7a98
p4896
I1238
sV\u561b
p4897
I3752
sV\u8f6e
p4898
I4231
sV\u749c
p4899
I1239
sV\u901f
p4900
I1240
sV\u9576
p4901
I3982
sV\u9631
p4902
I5051
sV\u8925
p4903
I3754
sV\u88a4
p4904
I5009
sV\u8427
p4905
I1241
sV\u6270
p4906
I2968
sV\u62a8
p4907
I1242
sV\u96c6
p4908
I5058
sV\u5d2d
p4909
I2503
sV\u86f3
p4910
I2969
sV\u75b2
p4911
I2504
sV\u8c37
p4912
I2505
sV\u53c8
p4913
I5059
sV\u9530
p4914
I3698
sV\u853d
p4915
I5010
sV\u64bc
p4916
I5011
sV\u803f
p4917
I2506
sV\u7ec0
p4918
I3755
sV\u90ca
p4919
I5060
sV\u5d6c
p4920
I5037
sV\u5349
p4921
I3756
sV\u72c8
p4922
I3757
sV\u4e4b
p4923
I1243
sV\u91ca
p4924
I5012
sV\u6ccc
p4925
I3759
sV\u6dcc
p4926
I3799
sV\u6751
p4927
I5013
sV\u6253
p4928
I2507
sV\u8155
p4929
I1244
sV\u5fd6
p4930
I3760
sV\u5b59
p4931
I5015
sV\u9ad8
p4932
I3761
sV\u965b
p4933
I5016
sV\u59da
p4934
I3762
sV\u955d
p4935
I2508
sV\u74dc
p4936
I2509
sV\u73de
p4937
I5017
sV\u6d4a
p4938
I2642
sV\u717d
p4939
I1720
sV\u6467
p4940
I1245
sV\u67d0
p4941
I3800
sV\u62e8
p4942
I2510
sV\u9e6b
p4943
I1246
sV\u81ea
p4944
I1247
sV\u7bee
p4945
I3765
sV\u56f0
p4946
I2511
sV\u8538
p4947
I3241
sV\u54d2
p4948
I1899
sV\u5175
p4949
I1248
sV\u90f4
p4950
I5020
sV\u6b79
p4951
I2513
sV\u6055
p4952
I5061
sV\u867b
p4953
I1249
sV\u807f
p4954
I1250
sV\u5f00
p4955
I3767
sV\u5b83
p4956
I5023
sV\u5885
p4957
I2514
sV\u5904
p4958
I3768
sV\u5587
p4959
I5025
sV\u5308
p4960
I3769
sV\u4f8b
p4961
I5026
sV\u900a
p4962
I3770
sV\u5170
p4963
I4799
sV\u6691
p4964
I1251
sV\u8393
p4965
I2515
sV\u5e16
p4966
I2516
sV\u94a8
p4967
I4168
sV\u579b
p4968
I1252
sV\u781a
p4969
I1253
sV\u949d
p4970
I1254
sV\u575b
p4971
I2554
sV\u719f
p4972
I2517
sV\u4ea1
p4973
I3772
sV\u6f20
p4974
I3773
sV\u8ba3
p4975
I3774
sV\u6c22
p4976
I1255
sV\u6924
p4977
I3775
sV\u65a7
p4978
I2518
sV\u8328
p4979
I2519
sV\u602a
p4980
I1256
sV\u5cad
p4981
I5029
sV\u76b1
p4982
I3777
sV\u5730
p4983
I1257
sV\u6e32
p4984
I4016
sV\u90b5
p4985
I2520
sV\u62d3
p4986
I5000
sV\u72de
p4987
I5063
sV\u853c
p4988
I3778
sV\u623e
p4989
I5030
sV\u5c42
p4990
I5031
sV\u58c5
p4991
I1258
sV\u5944
p4992
I2522
sV\u75c7
p4993
I5032
sV\u7fe0
p4994
I1900
sV\u52c9
p4995
I1259
sV\u5348
p4996
I2524
sV\u4f20
p4997
I5027
sV\u8d4c
p4998
I5033
sV\u988c
p4999
I2974
sV\u6750
p5000
I1260
sV\u6452
p5001
I3779
sV\u60d5
p5002
I2525
sV\u8c0f
p5003
I4840
sV\u8138
p5004
I3395
sV\u7ad9
p5005
I1261
sV\u5b58
p5006
I3780
sV\u77db
p5007
I3781
sV\u6f8e
p5008
I4841
sV\u54dd
p5009
I2526
sV\u955c
p5010
I1262
sV\u6ee1
p5011
I1263
sV\u4f60
p5012
I3783
sV\u8be3
p5013
I2527
sV\u8c62
p5014
I3784
sV\u65e7
p5015
I3785
sV\u6666
p5016
I2528
sV\u62e9
p5017
I1264
sV\u8368
p5018
I1265
sV\u5feb
p5019
I1266
sV\u606a
p5020
I2529
sV\u5ced
p5021
I3787
sV\u6c27
p5022
I4684
sV\u79ef
p5023
I2530
sV\u9a6e
p5024
I5038
sV\u56f1
p5025
I3788
sV\u5269
p5026
I4446
sV\u53f3
p5027
I1267
sV\u5472
p5028
I2531
sV\u50f5
p5029
I3789
sV\u8bbf
p5030
I4632
sV\u6df7
p5031
I2532
sV\u8e76
p5032
I5040
sV\u6cc4
p5033
I2980
sV\u61ff
p5034
I2533
sV\u627e
p5035
I1268
sV\u5e01
p5036
I5042
sV\u5f80
p5037
I1269
sV\u7b03
p5038
I1270
sV\u5c82
p5039
I3791
sV\u5984
p5040
I1271
sV\u5507
p5041
I2535
sV\u9686
p5042
I1272
sV\u708a
p5043
I5045
sV\u8c0d
p5044
I2536
sV\u6d8c
p5045
I2537
sV\u54b1
p5046
I4945
sV\u8611
p5047
I2538
sV\u6790
p5048
I2539
sV\u6492
p5049
I5046
sV\u8015
p5050
I2540
sV\u6194
p5051
I2541
sV\u7480
p5052
I2087
sV\u5e96
p5053
I5047
sV\u5b98
p5054
I2542
sV\u989a
p5055
I2543
sV\u541d
p5056
I1273
sV\u559c
p5057
I2544
sV\u529e
p5058
I5048
sV\u6e21
p5059
I2545
sV\u4fa0
p5060
I2546
sV\u6b23
p5061
I5049
sV\u63a8
p5062
I1274
sV\u80aa
p5063
I2547
sV\u592f
p5064
I5050
sV\u5631
p5065
I2548
sV\u66f9
p5066
I4565
sV\u54f2
p5067
I5068
sV\u9035
p5068
I5053
sV\u91b4
p5069
I1275
sV\u8d37
p5070
I2549
sV\u5948
p5071
I2115
sV\u8bb8
p5072
I1276
sV\u873b
p5073
I2551
sV\u643d
p5074
I1277
sV\u65bc
p5075
I5055
sV\u613f
p5076
I3795
sV\u82be
p5077
I3796
sV\u7e41
p5078
I5056
sV\u8722
p5079
I4594
sV\u64e6
p5080
I4983
sV\u7845
p5081
I5057
sV\u6d77
p5082
I5069
sV\u9547
p5083
I3797
sV\u76c6
p5084
I1278
sV\u73c8
p5085
I3798
sV\u6f4b
p5086
I2552
sV\u70ca
p5087
I1279
sV\u8dcc
p5088
I2553
sV\u919b
p5089
I3541
sV\u8651
p5090
I1280
sV\u6a79
p5091
I2559
sV\u64d2
p5092
I1281
sS'U'
p5093
I1
sV\u63cf
p5094
I4639
sV\u5ed6
p5095
I3801
sV\u8d25
p5096
I3606
sV\u775b
p5097
I1282
sV\u98da
p5098
I1283
sV\u55dc
p5099
I1284
sV\u9ca4
p5100
I4239
sV\u4e61
p5101
I5064
sV\u6fe0
p5102
I2555
sV\u6b63
p5103
I1285
sV\u6ce2
p5104
I5065
sV\u8865
p5105
I2556
sV\u90f8
p5106
I4006
sV\u6269
p5107
I3803
sV\u996f
p5108
I1286
sV\u5671
p5109
I1287
sV\u7729
p5110
I1712
sV\u5373
p5111
I3804
sV\u94f2
p5112
I2557
sV\u7075
p5113
I2558
sV\u8d77
p5114
I1288
sV\u4ef6
p5115
I5070
sV\u78c5
p5116
I2521
sV\u8bf8
p5117
I5071
sV\u68fa
p5118
I3807
sV\u817f
p5119
I1289
sV\u5b54
p5120
I1509
s(dp5121
I0
g1283
sI1
g5093
sI2
g2387
sI3
g49
sI4
g52
sI5
g53
sI6
g55
sI7
g65
sI8
g66
sI9
g68
sI10
g73
sI11
g78
sI12
g81
sI13
g82
sI14
g85
sI15
g88
sI16
g89
sI17
g92
sI18
g93
sI19
g94
sI20
g96
sI21
g109
sI22
g110
sI23
g111
sI24
g114
sI25
g123
sI26
g125
sI27
g131
sI28
g134
sI29
g141
sI30
g146
sI31
g150
sI32
g153
sI33
g160
sI34
g164
sI35
g185
sI36
g189
sI37
g192
sI38
g196
sI39
g199
sI40
g201
sI41
g202
sI42
g207
sI43
g209
sI44
g211
sI45
g212
sI46
g213
sI47
g217
sI48
g218
sI49
g223
sI50
g230
sI51
g236
sI52
g237
sI53
g240
sI54
g242
sI55
g248
sI56
g251
sI57
g254
sI58
g269
sI59
g273
sI60
g1438
sI61
g276
sI62
g279
sI63
g282
sI64
g290
sI65
g292
sI66
g297
sI67
g299
sI68
g303
sI69
g304
sI70
g305
sI71
g319
sI72
g325
sI73
g331
sI74
g335
sI75
g342
sI76
g1843
sI77
g348
sI78
g353
sI79
g359
sI80
g360
sI81
g362
sI82
g373
sI83
g379
sI84
g383
sI85
g385
sI86
g398
sI87
g400
sI88
g402
sI89
g408
sI90
g416
sI91
g418
sI92
g419
sI93
g421
sI94
g423
sI95
g425
sI96
g436
sI97
g439
sI98
g440
sI99
g441
sI100
g445
sI101
g446
sI102
g447
sI103
g450
sI104
g452
sI105
g459
sI106
g460
sI107
g465
sI108
g473
sI109
g479
sI110
g482
sI111
g485
sI112
g487
sI113
g491
sI114
g492
sI115
g495
sI116
g502
sI117
g510
sI118
g511
sI119
g513
sI120
g515
sI121
g519
sI122
g521
sI123
g528
sI124
g529
sI125
g531
sI126
g533
sI127
g540
sI128
g542
sI129
g547
sI130
g548
sI131
g549
sI132
g556
sI133
g562
sI134
g564
sI135
g568
sI136
g574
sI137
g575
sI138
g582
sI139
g583
sI140
g586
sI141
g591
sI142
g593
sI143
g601
sI144
g603
sI145
g608
sI146
g614
sI147
g615
sI148
g619
sI149
g629
sI150
g630
sI151
g632
sI152
g633
sI153
g638
sI154
g644
sI155
g646
sI156
g647
sI157
g650
sI158
g652
sI159
g662
sI160
g663
sI161
g665
sI162
g667
sI163
g668
sI164
g676
sI165
g695
sI166
g702
sI167
g708
sI168
g711
sI169
g718
sI170
g722
sI171
g727
sI172
g728
sI173
g732
sI174
g739
sI175
g741
sI176
g744
sI177
g747
sI178
g759
sI179
g760
sI180
g768
sI181
g774
sI182
g779
sI183
g785
sI184
g791
sI185
g793
sI186
g802
sI187
g805
sI188
g808
sI189
g811
sI190
g816
sI191
g822
sI192
g826
sI193
g830
sI194
g833
sI195
g840
sI196
g844
sI197
g847
sI198
g848
sI199
g850
sI200
g851
sI201
g855
sI202
g856
sI203
g860
sI204
g868
sI205
g871
sI206
g875
sI207
g877
sI208
g891
sI209
g894
sI210
g896
sI211
g904
sI212
g913
sI213
g916
sI214
g917
sI215
g918
sI216
g922
sI217
g925
sI218
g928
sI219
g932
sI220
g938
sI221
g943
sI222
g945
sI223
g950
sI224
g951
sI225
g955
sI226
g959
sI227
g960
sI228
g961
sI229
g973
sI230
g974
sI231
g977
sI232
g990
sI233
g992
sI234
g993
sI235
g994
sI236
g1003
sI237
g1004
sI238
g1006
sI239
g1008
sI240
g1011
sI241
g1019
sI242
g1020
sI243
g1026
sI244
g1034
sI245
g1036
sI246
g1037
sI247
g1039
sI248
g1041
sI249
g1052
sI250
g1054
sI251
g1057
sI252
g1064
sI253
g1065
sI254
g1070
sI255
g1079
sI256
g1082
sI257
g1083
sI258
g1086
sI259
g1092
sI260
g1107
sI261
g1116
sI262
g1124
sI263
g1126
sI264
g1128
sI265
g1132
sI266
g1135
sI267
g1137
sI268
g1143
sI269
g1151
sI270
g1154
sI271
g1157
sI272
g1162
sI273
g1164
sI274
g1171
sI275
g1173
sI276
g1175
sI277
g1179
sI278
g1184
sI279
g1186
sI280
g1190
sI281
g1195
sI282
g1200
sI283
g1201
sI284
g1202
sI285
g1204
sI286
g1206
sI287
g1210
sI288
g1217
sI289
g1219
sI290
g1227
sI291
g1229
sI292
g1231
sI293
g1235
sI294
g1237
sI295
g1241
sI296
g1244
sI297
g1247
sI298
g1251
sI299
g1253
sI300
g1255
sI301
g1261
sI302
g1263
sI303
g1268
sI304
g1272
sI305
g1278
sI306
g1282
sI307
g1288
sI308
g1296
sI309
g1301
sI310
g1302
sI311
g1304
sI312
g1306
sI313
g1308
sI314
g1310
sI315
g1320
sI316
g1328
sI317
g1331
sI318
g1332
sI319
g1334
sI320
g1340
sI321
g1344
sI322
g1345
sI323
g1351
sI324
g1355
sI325
g1358
sI326
g1360
sI327
g1361
sI328
g1364
sI329
g1367
sI330
g1368
sI331
g1375
sI332
g1376
sI333
g1379
sI334
g1380
sI335
g1385
sI336
g1386
sI337
g1387
sI338
g1392
sI339
g1394
sI340
g1410
sI341
g1411
sI342
g1413
sI343
g1421
sI344
g1425
sI345
g1430
sI346
g1433
sI347
g1437
sI348
g1439
sI349
g1443
sI350
g1449
sI351
g1450
sI352
g1452
sI353
g1453
sI354
g1454
sI355
g1457
sI356
g1458
sI357
g1461
sI358
g1462
sI359
g1465
sI360
g1468
sI361
g1471
sI362
g1477
sI363
g1479
sI364
g1481
sI365
g1484
sI366
g1485
sI367
g1487
sI368
g1492
sI369
g1494
sI370
g1495
sI371
g1503
sI372
g1507
sI373
g1508
sI374
g1510
sI375
g1513
sI376
g1523
sI377
g1529
sI378
g1530
sI379
g1535
sI380
g1537
sI381
g1538
sI382
g1545
sI383
g1548
sI384
g1551
sI385
g1552
sI386
g1553
sI387
g1554
sI388
g1556
sI389
g1568
sI390
g1570
sI391
g1572
sI392
g1577
sI393
g1582
sI394
g1587
sI395
g1590
sI396
g1594
sI397
g1596
sI398
g1601
sI399
g1605
sI400
g1606
sI401
g1607
sI402
g1609
sI403
g1613
sI404
g1616
sI405
g1620
sI406
g1624
sI407
g1625
sI408
g1628
sI409
g1629
sI410
g1632
sI411
g1639
sI412
g1641
sI413
g1643
sI414
g1647
sI415
g1659
sI416
g1662
sI417
g1665
sI418
g1667
sI419
g1676
sI420
g1680
sI421
g1681
sI422
g1693
sI423
g1695
sI424
g1698
sI425
g1699
sI426
g1700
sI427
g1702
sI428
g1705
sI429
g1706
sI430
g1716
sI431
g1721
sI432
g1724
sI433
g1729
sI434
g1730
sI435
g1733
sI436
g1735
sI437
g1738
sI438
g1739
sI439
g1742
sI440
g1744
sI441
g1745
sI442
g1748
sI443
g1752
sI444
g1754
sI445
g1757
sI446
g1759
sI447
g1762
sI448
g1763
sI449
g1767
sI450
g1768
sI451
g1775
sI452
g1776
sI453
g1777
sI454
g1782
sI455
g1786
sI456
g1791
sI457
g1792
sI458
g1793
sI459
g1795
sI460
g1798
sI461
g1801
sI462
g1803
sI463
g1808
sI464
g1813
sI465
g1816
sI466
g1818
sI467
g1821
sI468
g1824
sI469
g1825
sI470
g1835
sI471
g1844
sI472
g1847
sI473
g1849
sI474
g1865
sI475
g1866
sI476
g1870
sI477
g1873
sI478
g1876
sI479
g1877
sI480
g1881
sI481
g1888
sI482
g1891
sI483
g1904
sI484
g1915
sI485
g1916
sI486
g1918
sI487
g1921
sI488
g1928
sI489
g1931
sI490
g1942
sI491
g1945
sI492
g1948
sI493
g1956
sI494
g1964
sI495
g1968
sI496
g1969
sI497
g1974
sI498
g1981
sI499
g1983
sI500
g1984
sI501
g1989
sI502
g1993
sI503
g2003
sI504
g2006
sI505
g2007
sI506
g2010
sI507
g2018
sI508
g2025
sI509
g2036
sI510
g2045
sI511
g2052
sI512
g2063
sI513
g2065
sI514
g2067
sI515
g2070
sI516
g2074
sI517
g2083
sI518
g2092
sI519
g2099
sI520
g2100
sI521
g2104
sI522
g2107
sI523
g2112
sI524
g2117
sI525
g2119
sI526
g2123
sI527
g2126
sI528
g2128
sI529
g2130
sI530
g2139
sI531
g2144
sI532
g2148
sI533
g2152
sI534
g2158
sI535
g2163
sI536
g2164
sI537
g2167
sI538
g2168
sI539
g2171
sI540
g2182
sI541
g2185
sI542
g2190
sI543
g2191
sI544
g2196
sI545
g2197
sI546
g2200
sI547
g2203
sI548
g2204
sI549
g2207
sI550
g2210
sI551
g2212
sI552
g2217
sI553
g2219
sI554
g2224
sI555
g2228
sI556
g2232
sI557
g2235
sI558
g2236
sI559
g2238
sI560
g2241
sI561
g2249
sI562
g2253
sI563
g2260
sI564
g2265
sI565
g2266
sI566
g2268
sI567
g2274
sI568
g2278
sI569
g2279
sI570
g2281
sI571
g2287
sI572
g2296
sI573
g2305
sI574
g2307
sI575
g2312
sI576
g2318
sI577
g2322
sI578
g2323
sI579
g2330
sI580
g2335
sI581
g2336
sI582
g2344
sI583
g2345
sI584
g2348
sI585
g2352
sI586
g2363
sI587
g2365
sI588
g2366
sI589
g2369
sI590
g2375
sI591
g2377
sI592
g2382
sI593
g2383
sI594
g2392
sI595
g2393
sI596
g2397
sI597
g2398
sI598
g2400
sI599
g2404
sI600
g2409
sI601
g2412
sI602
g2418
sI603
g2420
sI604
g2421
sI605
g2427
sI606
g2429
sI607
g2430
sI608
g2439
sI609
g2443
sI610
g2446
sI611
g2447
sI612
g2458
sI613
g2461
sI614
g2468
sI615
g2474
sI616
g2480
sI617
g2482
sI618
g2490
sI619
g2496
sI620
g2503
sI621
g2509
sI622
g2511
sI623
g2513
sI624
g2514
sI625
g2519
sI626
g2521
sI627
g2527
sI628
g2529
sI629
g2530
sI630
g2531
sI631
g2540
sI632
g2542
sI633
g2549
sI634
g2550
sI635
g2551
sI636
g2560
sI637
g2561
sI638
g2562
sI639
g2564
sI640
g2566
sI641
g2567
sI642
g2570
sI643
g2571
sI644
g2577
sI645
g2583
sI646
g2588
sI647
g2589
sI648
g2591
sI649
g2593
sI650
g2594
sI651
g2603
sI652
g2604
sI653
g2614
sI654
g2618
sI655
g2620
sI656
g2621
sI657
g2625
sI658
g2637
sI659
g2638
sI660
g2640
sI661
g2641
sI662
g2645
sI663
g2648
sI664
g2649
sI665
g2651
sI666
g2654
sI667
g2657
sI668
g2658
sI669
g2660
sI670
g2672
sI671
g2673
sI672
g2678
sI673
g2679
sI674
g2681
sI675
g2684
sI676
g2688
sI677
g2689
sI678
g2704
sI679
g2708
sI680
g2710
sI681
g2716
sI682
g2719
sI683
g2723
sI684
g2725
sI685
g2726
sI686
g2731
sI687
g2735
sI688
g2741
sI689
g2754
sI690
g2755
sI691
g2757
sI692
g2772
sI693
g2779
sI694
g2787
sI695
g2789
sI696
g2791
sI697
g2793
sI698
g2795
sI699
g2798
sI700
g2799
sI701
g2822
sI702
g2828
sI703
g2831
sI704
g2832
sI705
g2834
sI706
g2836
sI707
g2837
sI708
g2838
sI709
g2843
sI710
g2847
sI711
g2853
sI712
g2856
sI713
g2858
sI714
g2860
sI715
g2862
sI716
g2872
sI717
g2875
sI718
g2879
sI719
g2891
sI720
g2894
sI721
g2896
sI722
g2898
sI723
g2899
sI724
g2908
sI725
g2910
sI726
g2914
sI727
g2915
sI728
g2916
sI729
g2918
sI730
g2920
sI731
g2922
sI732
g2923
sI733
g2925
sI734
g2934
sI735
g2942
sI736
g2945
sI737
g2957
sI738
g2958
sI739
g2964
sI740
g2968
sI741
g2972
sI742
g2976
sI743
g2979
sI744
g2981
sI745
g2987
sI746
g2989
sI747
g2990
sI748
g2992
sI749
g3002
sI750
g3008
sI751
g3012
sI752
g3021
sI753
g3022
sI754
g3024
sI755
g3025
sI756
g3026
sI757
g3027
sI758
g3029
sI759
g3031
sI760
g3035
sI761
g3039
sI762
g3041
sI763
g3043
sI764
g3044
sI765
g3050
sI766
g3052
sI767
g3054
sI768
g3055
sI769
g3058
sI770
g3062
sI771
g3064
sI772
g3065
sI773
g3068
sI774
g3069
sI775
g3071
sI776
g3079
sI777
g3082
sI778
g3083
sI779
g3087
sI780
g3088
sI781
g3095
sI782
g3096
sI783
g3097
sI784
g3099
sI785
g3101
sI786
g3105
sI787
g3106
sI788
g3112
sI789
g3115
sI790
g3117
sI791
g3119
sI792
g3120
sI793
g3123
sI794
g3124
sI795
g3134
sI796
g3137
sI797
g3155
sI798
g3159
sI799
g3160
sI800
g3162
sI801
g3165
sI802
g3170
sI803
g3171
sI804
g3177
sI805
g3179
sI806
g3185
sI807
g3189
sI808
g3205
sI809
g3212
sI810
g3217
sI811
g3225
sI812
g3230
sI813
g3233
sI814
g3235
sI815
g3239
sI816
g3250
sI817
g3251
sI818
g3254
sI819
g3258
sI820
g3261
sI821
g3262
sI822
g3267
sI823
g3269
sI824
g3271
sI825
g3274
sI826
g3275
sI827
g3281
sI828
g3282
sI829
g3286
sI830
g3296
sI831
g3299
sI832
g3312
sI833
g3315
sI834
g3324
sI835
g3326
sI836
g3334
sI837
g3341
sI838
g3346
sI839
g3350
sI840
g3358
sI841
g3361
sI842
g3362
sI843
g3371
sI844
g3374
sI845
g3376
sI846
g3377
sI847
g3378
sI848
g3379
sI849
g3381
sI850
g3382
sI851
g3386
sI852
g3387
sI853
g3392
sI854
g3393
sI855
g3395
sI856
g3399
sI857
g3403
sI858
g3408
sI859
g3410
sI860
g3412
sI861
g3415
sI862
g3416
sI863
g3422
sI864
g3435
sI865
g3437
sI866
g3438
sI867
g3439
sI868
g3440
sI869
g3448
sI870
g3450
sI871
g3452
sI872
g3461
sI873
g3477
sI874
g3478
sI875
g3488
sI876
g3490
sI877
g3498
sI878
g3501
sI879
g3507
sI880
g3510
sI881
g3514
sI882
g3520
sI883
g3525
sI884
g3527
sI885
g3528
sI886
g3534
sI887
g3537
sI888
g3538
sI889
g3543
sI890
g3554
sI891
g3558
sI892
g3561
sI893
g3566
sI894
g3575
sI895
g3577
sI896
g3584
sI897
g3593
sI898
g3597
sI899
g3598
sI900
g3602
sI901
g3605
sI902
g3611
sI903
g3614
sI904
g3616
sI905
g3622
sI906
g3623
sI907
g3626
sI908
g3631
sI909
g3632
sI910
g3635
sI911
g3644
sI912
g3649
sI913
g3653
sI914
g3661
sI915
g3662
sI916
g3663
sI917
g3669
sI918
g3671
sI919
g3673
sI920
g3675
sI921
g3686
sI922
g3687
sI923
g3689
sI924
g3693
sI925
g3695
sI926
g3701
sI927
g3707
sI928
g3709
sI929
g3713
sI930
g3714
sI931
g3717
sI932
g3720
sI933
g3724
sI934
g3726
sI935
g3727
sI936
g3731
sI937
g3735
sI938
g3739
sI939
g3741
sI940
g3745
sI941
g3746
sI942
g3748
sI943
g3754
sI944
g3759
sI945
g3760
sI946
g3761
sI947
g3764
sI948
g3769
sI949
g3771
sI950
g3775
sI951
g3780
sI952
g3798
sI953
g3801
sI954
g3802
sI955
g3804
sI956
g3806
sI957
g3807
sI958
g3811
sI959
g3815
sI960
g3818
sI961
g3827
sI962
g3829
sI963
g3837
sI964
g3840
sI965
g3841
sI966
g3842
sI967
g3846
sI968
g3852
sI969
g3853
sI970
g3860
sI971
g3862
sI972
g3868
sI973
g3870
sI974
g3874
sI975
g3875
sI976
g3877
sI977
g3883
sI978
g3885
sI979
g3897
sI980
g3898
sI981
g3900
sI982
g3902
sI983
g3914
sI984
g3915
sI985
g3918
sI986
g3920
sI987
g3923
sI988
g3924
sI989
g3931
sI990
g3935
sI991
g3940
sI992
g3941
sI993
g3945
sI994
g3946
sI995
g3948
sI996
g3949
sI997
g3950
sI998
g3958
sI999
g3959
sI1000
g3962
sI1001
g3965
sI1002
g3974
sI1003
g3977
sI1004
g3979
sI1005
g3980
sI1006
g3982
sI1007
g3987
sI1008
g3988
sI1009
g3989
sI1010
g3994
sI1011
g3997
sI1012
g3999
sI1013
g4002
sI1014
g4008
sI1015
g4012
sI1016
g4017
sI1017
g4018
sI1018
g4021
sI1019
g4032
sI1020
g4036
sI1021
g4041
sI1022
g4046
sI1023
g4047
sI1024
g4049
sI1025
g4050
sI1026
g4051
sI1027
g4053
sI1028
g4059
sI1029
g4068
sI1030
g4070
sI1031
g4074
sI1032
g4078
sI1033
g4088
sI1034
g4090
sI1035
g4092
sI1036
g4095
sI1037
g4101
sI1038
g4105
sI1039
g4107
sI1040
g4109
sI1041
g4118
sI1042
g4121
sI1043
g4122
sI1044
g4127
sI1045
g4128
sI1046
g4130
sI1047
g4131
sI1048
g4133
sI1049
g4142
sI1050
g4144
sI1051
g4151
sI1052
g4157
sI1053
g4163
sI1054
g4164
sI1055
g4168
sI1056
g4173
sI1057
g4175
sI1058
g4180
sI1059
g4187
sI1060
g4190
sI1061
g4193
sI1062
g4194
sI1063
g4200
sI1064
g4205
sI1065
g4209
sI1066
g4215
sI1067
g4216
sI1068
g4221
sI1069
g4226
sI1070
g4229
sI1071
g4230
sI1072
g4233
sI1073
g4236
sI1074
g4245
sI1075
g4246
sI1076
g4248
sI1077
g4255
sI1078
g4263
sI1079
g4266
sI1080
g4268
sI1081
g4269
sI1082
g4275
sI1083
g4279
sI1084
g4283
sI1085
g4288
sI1086
g4291
sI1087
g4294
sI1088
g4302
sI1089
g4303
sI1090
g4306
sI1091
g4307
sI1092
g4312
sI1093
g4315
sI1094
g4318
sI1095
g4321
sI1096
g4323
sI1097
g4324
sI1098
g4326
sI1099
g4333
sI1100
g4336
sI1101
g4341
sI1102
g4343
sI1103
g4344
sI1104
g4347
sI1105
g4350
sI1106
g4352
sI1107
g4356
sI1108
g4360
sI1109
g4363
sI1110
g4369
sI1111
g4374
sI1112
g4383
sI1113
g4384
sI1114
g4392
sI1115
g4397
sI1116
g4400
sI1117
g4404
sI1118
g4407
sI1119
g4424
sI1120
g4432
sI1121
g4435
sI1122
g4436
sI1123
g4444
sI1124
g4453
sI1125
g4460
sI1126
g4461
sI1127
g4467
sI1128
g4468
sI1129
g4469
sI1130
g4472
sI1131
g4478
sI1132
g4482
sI1133
g4486
sI1134
g4487
sI1135
g4489
sI1136
g4493
sI1137
g4494
sI1138
g4496
sI1139
g4498
sI1140
g4501
sI1141
g4506
sI1142
g4511
sI1143
g4512
sI1144
g4515
sI1145
g4516
sI1146
g4521
sI1147
g4522
sI1148
g4525
sI1149
g4526
sI1150
g4528
sI1151
g4535
sI1152
g4539
sI1153
g4543
sI1154
g4558
sI1155
g4571
sI1156
g4576
sI1157
g4577
sI1158
g4585
sI1159
g4588
sI1160
g4591
sI1161
g4592
sI1162
g4593
sI1163
g4596
sI1164
g4602
sI1165
g4606
sI1166
g4608
sI1167
g4610
sI1168
g4612
sI1169
g4617
sI1170
g4620
sI1171
g4624
sI1172
g4625
sI1173
g4631
sI1174
g4632
sI1175
g4634
sI1176
g4639
sI1177
g4645
sI1178
g4647
sI1179
g4648
sI1180
g4650
sI1181
g4653
sI1182
g4656
sI1183
g4657
sI1184
g4658
sI1185
g4661
sI1186
g4663
sI1187
g4668
sI1188
g4669
sI1189
g4673
sI1190
g4675
sI1191
g4677
sI1192
g4687
sI1193
g4689
sI1194
g4690
sI1195
g4700
sI1196
g4704
sI1197
g4705
sI1198
g4709
sI1199
g4711
sI1200
g4715
sI1201
g4717
sI1202
g4721
sI1203
g4722
sI1204
g4736
sI1205
g4737
sI1206
g4754
sI1207
g4759
sI1208
g4760
sI1209
g4770
sI1210
g4778
sI1211
g4779
sI1212
g4786
sI1213
g4788
sI1214
g4792
sI1215
g4793
sI1216
g4802
sI1217
g4804
sI1218
g4805
sI1219
g4807
sI1220
g4808
sI1221
g4811
sI1222
g4817
sI1223
g4818
sI1224
g4830
sI1225
g4832
sI1226
g4834
sI1227
g4837
sI1228
g4849
sI1229
g4850
sI1230
g4856
sI1231
g4861
sI1232
g4865
sI1233
g4866
sI1234
g4876
sI1235
g4879
sI1236
g4886
sI1237
g4890
sI1238
g4896
sI1239
g4899
sI1240
g4900
sI1241
g4905
sI1242
g4907
sI1243
g4923
sI1244
g4929
sI1245
g4940
sI1246
g4943
sI1247
g4944
sI1248
g4949
sI1249
g4953
sI1250
g4954
sI1251
g4964
sI1252
g4968
sI1253
g4969
sI1254
g4970
sI1255
g4976
sI1256
g4980
sI1257
g4983
sI1258
g4991
sI1259
g4995
sI1260
g5000
sI1261
g5005
sI1262
g5010
sI1263
g5011
sI1264
g5017
sI1265
g5018
sI1266
g5019
sI1267
g5027
sI1268
g5035
sI1269
g5037
sI1270
g5038
sI1271
g5040
sI1272
g5042
sI1273
g5056
sI1274
g5062
sI1275
g5069
sI1276
g5072
sI1277
g5074
sI1278
g5084
sI1279
g5087
sI1280
g5090
sI1281
g5092
sI1282
g5097
sI1283
g5098
sI1284
g5099
sI1285
g5103
sI1286
g5108
sI1287
g5109
sI1288
g5114
sI1289
g5119
sI1290
g50
sI1291
g54
sI1292
g56
sI1293
g58
sI1294
g59
sI1295
g158
sI1296
g67
sI1297
g74
sI1298
g243
sI1299
g268
sI1300
g330
sI1301
g336
sI1302
g346
sI1303
g99
sI1304
g100
sI1305
g107
sI1306
g108
sI1307
g112
sI1308
g113
sI1309
g434
sI1310
g119
sI1311
g120
sI1312
g121
sI1313
g122
sI1314
g124
sI1315
g506
sI1316
g130
sI1317
g133
sI1318
g165
sI1319
g166
sI1320
g167
sI1321
g169
sI1322
g173
sI1323
g175
sI1324
g177
sI1325
g178
sI1326
g181
sI1327
g184
sI1328
g186
sI1329
g4775
sI1330
g191
sI1331
g195
sI1332
g208
sI1333
g1044
sI1334
g215
sI1335
g224
sI1336
g228
sI1337
g232
sI1338
g233
sI1339
g239
sI1340
g1213
sI1341
g241
sI1342
g247
sI1343
g250
sI1344
g253
sI1345
g257
sI1346
g258
sI1347
g259
sI1348
g263
sI1349
g267
sI1350
g270
sI1351
g272
sI1352
g274
sI1353
g1448
sI1354
g280
sI1355
g283
sI1356
g286
sI1357
g296
sI1358
g298
sI1359
g352
sI1360
g306
sI1361
g312
sI1362
g316
sI1363
g321
sI1364
g323
sI1365
g327
sI1366
g332
sI1367
g1850
sI1368
g339
sI1369
g344
sI1370
g350
sI1371
g358
sI1372
g365
sI1373
g367
sI1374
g370
sI1375
g376
sI1376
g377
sI1377
g382
sI1378
g388
sI1379
g391
sI1380
g393
sI1381
g397
sI1382
g401
sI1383
g404
sI1384
g406
sI1385
g2227
sI1386
g411
sI1387
g415
sI1388
g427
sI1389
g431
sI1390
g432
sI1391
g433
sI1392
g2460
sI1393
g451
sI1394
g453
sI1395
g455
sI1396
g456
sI1397
g2553
sI1398
g461
sI1399
g472
sI1400
g475
sI1401
g481
sI1402
g488
sI1403
g494
sI1404
g503
sI1405
g509
sI1406
g512
sI1407
g517
sI1408
g518
sI1409
g2913
sI1410
g525
sI1411
g530
sI1412
g534
sI1413
g536
sI1414
g537
sI1415
g543
sI1416
g544
sI1417
g552
sI1418
g554
sI1419
g555
sI1420
g558
sI1421
g559
sI1422
g3183
sI1423
g566
sI1424
g570
sI1425
g573
sI1426
g579
sI1427
g585
sI1428
g590
sI1429
g595
sI1430
g596
sI1431
g600
sI1432
g3388
sI1433
g602
sI1434
g604
sI1435
g607
sI1436
g3421
sI1437
g611
sI1438
g617
sI1439
g618
sI1440
g623
sI1441
g624
sI1442
g628
sI1443
g634
sI1444
g635
sI1445
g3585
sI1446
g640
sI1447
g641
sI1448
g645
sI1449
g648
sI1450
g649
sI1451
g3712
sI1452
g3730
sI1453
g670
sI1454
g672
sI1455
g673
sI1456
g678
sI1457
g684
sI1458
g687
sI1459
g694
sI1460
g3922
sI1461
g697
sI1462
g700
sI1463
g701
sI1464
g1565
sI1465
g717
sI1466
g721
sI1467
g730
sI1468
g740
sI1469
g4132
sI1470
g743
sI1471
g746
sI1472
g750
sI1473
g752
sI1474
g753
sI1475
g755
sI1476
g756
sI1477
g761
sI1478
g762
sI1479
g4293
sI1480
g777
sI1481
g780
sI1482
g781
sI1483
g782
sI1484
g784
sI1485
g798
sI1486
g803
sI1487
g813
sI1488
g4561
sI1489
g818
sI1490
g825
sI1491
g827
sI1492
g832
sI1493
g843
sI1494
g846
sI1495
g859
sI1496
g864
sI1497
g866
sI1498
g4867
sI1499
g873
sI1500
g874
sI1501
g878
sI1502
g881
sI1503
g888
sI1504
g890
sI1505
g892
sI1506
g895
sI1507
g897
sI1508
g898
sI1509
g5120
sI1510
g908
sI1511
g909
sI1512
g911
sI1513
g920
sI1514
g924
sI1515
g929
sI1516
g933
sI1517
g936
sI1518
g939
sI1519
g944
sI1520
g307
sI1521
g953
sI1522
g954
sI1523
g956
sI1524
g965
sI1525
g966
sI1526
g969
sI1527
g971
sI1528
g1000
sI1529
g1001
sI1530
g1010
sI1531
g1012
sI1532
g1014
sI1533
g1022
sI1534
g1027
sI1535
g1029
sI1536
g1031
sI1537
g1033
sI1538
g1035
sI1539
g905
sI1540
g1043
sI1541
g1048
sI1542
g1055
sI1543
g1056
sI1544
g1068
sI1545
g1069
sI1546
g1074
sI1547
g1077
sI1548
g1078
sI1549
g1081
sI1550
g1084
sI1551
g1087
sI1552
g1106
sI1553
g1108
sI1554
g1110
sI1555
g1114
sI1556
g1117
sI1557
g1119
sI1558
g1120
sI1559
g1444
sI1560
g1131
sI1561
g1134
sI1562
g1136
sI1563
g1139
sI1564
g1140
sI1565
g1147
sI1566
g1150
sI1567
g1158
sI1568
g1160
sI1569
g1169
sI1570
g1177
sI1571
g1180
sI1572
g1189
sI1573
g1196
sI1574
g1203
sI1575
g1943
sI1576
g1207
sI1577
g1209
sI1578
g1211
sI1579
g1216
sI1580
g1224
sI1581
g1228
sI1582
g1232
sI1583
g2084
sI1584
g1242
sI1585
g1254
sI1586
g2222
sI1587
g1257
sI1588
g1258
sI1589
g1260
sI1590
g1265
sI1591
g1270
sI1592
g2308
sI1593
g1274
sI1594
g1276
sI1595
g1280
sI1596
g1285
sI1597
g1286
sI1598
g1287
sI1599
g1290
sI1600
g1295
sI1601
g1300
sI1602
g1303
sI1603
g1314
sI1604
g1315
sI1605
g1316
sI1606
g1319
sI1607
g1333
sI1608
g1336
sI1609
g1337
sI1610
g1343
sI1611
g2774
sI1612
g1352
sI1613
g1362
sI1614
g1372
sI1615
g1377
sI1616
g1378
sI1617
g1381
sI1618
g1391
sI1619
g1400
sI1620
g1403
sI1621
g1405
sI1622
g3176
sI1623
g1412
sI1624
g3195
sI1625
g1416
sI1626
g1417
sI1627
g1426
sI1628
g1428
sI1629
g1429
sI1630
g1435
sI1631
g1185
sI1632
g731
sI1633
g1459
sI1634
g1460
sI1635
g1467
sI1636
g1474
sI1637
g1475
sI1638
g1476
sI1639
g3609
sI1640
g1486
sI1641
g1491
sI1642
g1493
sI1643
g1496
sI1644
g1499
sI1645
g1502
sI1646
g1511
sI1647
g1522
sI1648
g1527
sI1649
g1533
sI1650
g1536
sI1651
g3943
sI1652
g1539
sI1653
g1542
sI1654
g1543
sI1655
g1546
sI1656
g1547
sI1657
g4026
sI1658
g1557
sI1659
g1559
sI1660
g1562
sI1661
g1563
sI1662
g1571
sI1663
g1574
sI1664
g1580
sI1665
g1581
sI1666
g4222
sI1667
g1584
sI1668
g1586
sI1669
g1595
sI1670
g1598
sI1671
g1604
sI1672
g4394
sI1673
g1621
sI1674
g1623
sI1675
g1630
sI1676
g1634
sI1677
g1636
sI1678
g1638
sI1679
g1642
sI1680
g1645
sI1681
g1651
sI1682
g1657
sI1683
g1666
sI1684
g1668
sI1685
g1671
sI1686
g1673
sI1687
g1677
sI1688
g1678
sI1689
g1679
sI1690
g4785
sI1691
g1682
sI1692
g1683
sI1693
g1684
sI1694
g1689
sI1695
g1690
sI1696
g1691
sI1697
g1692
sI1698
g4846
sI1699
g1696
sI1700
g1697
sI1701
g4884
sI1702
g1703
sI1703
g1704
sI1704
g1707
sI1705
g1708
sI1706
g1709
sI1707
g1717
sI1708
g1718
sI1709
g1726
sI1710
g1727
sI1711
g1734
sI1712
g5110
sI1713
g1753
sI1714
g136
sI1715
g1779
sI1716
g1781
sI1717
g1784
sI1718
g1790
sI1719
g338
sI1720
g4939
sI1721
g1797
sI1722
g1809
sI1723
g1814
sI1724
g1822
sI1725
g1826
sI1726
g1834
sI1727
g572
sI1728
g1841
sI1729
g1848
sI1730
g1851
sI1731
g1855
sI1732
g1858
sI1733
g1860
sI1734
g1862
sI1735
g1867
sI1736
g1869
sI1737
g823
sI1738
g1875
sI1739
g1878
sI1740
g1895
sI1741
g1898
sI1742
g1899
sI1743
g1901
sI1744
g1903
sI1745
g1907
sI1746
g1914
sI1747
g1917
sI1748
g1919
sI1749
g1927
sI1750
g1933
sI1751
g1293
sI1752
g1946
sI1753
g1949
sI1754
g1954
sI1755
g1958
sI1756
g1959
sI1757
g1963
sI1758
g1470
sI1759
g1973
sI1760
g1509
sI1761
g1977
sI1762
g1978
sI1763
g1980
sI1764
g1982
sI1765
g1990
sI1766
g1994
sI1767
g1995
sI1768
g1996
sI1769
g2000
sI1770
g2001
sI1771
g749
sI1772
g2004
sI1773
g2011
sI1774
g2014
sI1775
g1760
sI1776
g2022
sI1777
g2028
sI1778
g2030
sI1779
g2035
sI1780
g4871
sI1781
g2043
sI1782
g2051
sI1783
g2056
sI1784
g2060
sI1785
g2066
sI1786
g2075
sI1787
g2081
sI1788
g2133
sI1789
g2085
sI1790
g2090
sI1791
g2091
sI1792
g2094
sI1793
g2095
sI1794
g2103
sI1795
g2109
sI1796
g2114
sI1797
g2122
sI1798
g2124
sI1799
g2127
sI1800
g2395
sI1801
g2138
sI1802
g2140
sI1803
g2141
sI1804
g2142
sI1805
g2143
sI1806
g2146
sI1807
g2147
sI1808
g2150
sI1809
g2160
sI1810
g2166
sI1811
g2170
sI1812
g2172
sI1813
g2173
sI1814
g2701
sI1815
g2184
sI1816
g2186
sI1817
g2187
sI1818
g2771
sI1819
g2201
sI1820
g2202
sI1821
g2205
sI1822
g2887
sI1823
g2214
sI1824
g2220
sI1825
g2226
sI1826
g2230
sI1827
g2231
sI1828
g2234
sI1829
g2256
sI1830
g2262
sI1831
g2267
sI1832
g2273
sI1833
g2276
sI1834
g3343
sI1835
g2284
sI1836
g2291
sI1837
g3423
sI1838
g2300
sI1839
g2304
sI1840
g2306
sI1841
g2309
sI1842
g2310
sI1843
g2314
sI1844
g2315
sI1845
g2317
sI1846
g3550
sI1847
g2320
sI1848
g2321
sI1849
g3576
sI1850
g3580
sI1851
g2329
sI1852
g2334
sI1853
g2343
sI1854
g2349
sI1855
g2351
sI1856
g2358
sI1857
g2359
sI1858
g2367
sI1859
g2368
sI1860
g2373
sI1861
g2379
sI1862
g3996
sI1863
g2391
sI1864
g2399
sI1865
g2401
sI1866
g2403
sI1867
g2410
sI1868
g2411
sI1869
g2414
sI1870
g2416
sI1871
g2417
sI1872
g2423
sI1873
g2426
sI1874
g2434
sI1875
g2437
sI1876
g4402
sI1877
g2452
sI1878
g2453
sI1879
g2455
sI1880
g2457
sI1881
g4828
sI1882
g4476
sI1883
g4485
sI1884
g2473
sI1885
g2475
sI1886
g2484
sI1887
g2486
sI1888
g2487
sI1889
g2488
sI1890
g2489
sI1891
g2491
sI1892
g2499
sI1893
g2500
sI1894
g2501
sI1895
g2504
sI1896
g2506
sI1897
g4852
sI1898
g2522
sI1899
g4948
sI1900
g4994
sI1901
g2543
sI1902
g2546
sI1903
g2547
sI1904
g2556
sI1905
g2557
sI1906
g62
sI1907
g2568
sI1908
g2569
sI1909
g2587
sI1910
g204
sI1911
g2590
sI1912
g225
sI1913
g229
sI1914
g2601
sI1915
g2602
sI1916
g2608
sI1917
g2611
sI1918
g2616
sI1919
g384
sI1920
g2624
sI1921
g2628
sI1922
g2630
sI1923
g2631
sI1924
g2634
sI1925
g520
sI1926
g526
sI1927
g2643
sI1928
g2644
sI1929
g2656
sI1930
g2667
sI1931
g2668
sI1932
g2671
sI1933
g786
sI1934
g2680
sI1935
g804
sI1936
g2683
sI1937
g2687
sI1938
g2699
sI1939
g2706
sI1940
g2709
sI1941
g2711
sI1942
g2713
sI1943
g2733
sI1944
g2740
sI1945
g2744
sI1946
g2745
sI1947
g2747
sI1948
g2753
sI1949
g2756
sI1950
g2759
sI1951
g2761
sI1952
g2762
sI1953
g2764
sI1954
g2768
sI1955
g2769
sI1956
g3417
sI1957
g2782
sI1958
g2783
sI1959
g2786
sI1960
g2794
sI1961
g2797
sI1962
g1819
sI1963
g2803
sI1964
g2804
sI1965
g2810
sI1966
g2811
sI1967
g2814
sI1968
g2817
sI1969
g2833
sI1970
g1758
sI1971
g2845
sI1972
g2846
sI1973
g2849
sI1974
g2850
sI1975
g2852
sI1976
g1799
sI1977
g2855
sI1978
g2868
sI1979
g2870
sI1980
g2876
sI1981
g2877
sI1982
g2884
sI1983
g2885
sI1984
g2886
sI1985
g2888
sI1986
g2889
sI1987
g2893
sI1988
g2033
sI1989
g2900
sI1990
g2905
sI1991
g2906
sI1992
g2909
sI1993
g2911
sI1994
g2919
sI1995
g3442
sI1996
g2929
sI1997
g2935
sI1998
g2938
sI1999
g2944
sI2000
g2946
sI2001
g2947
sI2002
g2949
sI2003
g2951
sI2004
g2953
sI2005
g2954
sI2006
g2962
sI2007
g2963
sI2008
g2966
sI2009
g2969
sI2010
g2970
sI2011
g2978
sI2012
g2980
sI2013
g2982
sI2014
g2983
sI2015
g2984
sI2016
g2991
sI2017
g2994
sI2018
g3001
sI2019
g2665
sI2020
g3004
sI2021
g3006
sI2022
g3013
sI2023
g3014
sI2024
g3018
sI2025
g3020
sI2026
g3023
sI2027
g2466
sI2028
g2815
sI2029
g3045
sI2030
g3046
sI2031
g3048
sI2032
g3060
sI2033
g3075
sI2034
g3077
sI2035
g3148
sI2036
g3084
sI2037
g3086
sI2038
g3089
sI2039
g3093
sI2040
g3098
sI2041
g3100
sI2042
g3354
sI2043
g3114
sI2044
g3118
sI2045
g3122
sI2046
g3125
sI2047
g3126
sI2048
g3127
sI2049
g3130
sI2050
g3131
sI2051
g3135
sI2052
g3139
sI2053
g3140
sI2054
g3143
sI2055
g3145
sI2056
g3146
sI2057
g3147
sI2058
g3154
sI2059
g3156
sI2060
g3164
sI2061
g3167
sI2062
g3184
sI2063
g3188
sI2064
g3192
sI2065
g3193
sI2066
g3202
sI2067
g3203
sI2068
g3206
sI2069
g3219
sI2070
g3222
sI2071
g1646
sI2072
g3227
sI2073
g3229
sI2074
g3241
sI2075
g3243
sI2076
g3248
sI2077
g3253
sI2078
g3255
sI2079
g3264
sI2080
g3266
sI2081
g3268
sI2082
g4253
sI2083
g3277
sI2084
g3280
sI2085
g3283
sI2086
g3285
sI2087
g5052
sI2088
g3290
sI2089
g3294
sI2090
g3298
sI2091
g3303
sI2092
g3305
sI2093
g3306
sI2094
g3311
sI2095
g3317
sI2096
g3318
sI2097
g3319
sI2098
g3321
sI2099
g3322
sI2100
g3325
sI2101
g3327
sI2102
g3333
sI2103
g3335
sI2104
g3337
sI2105
g3339
sI2106
g3342
sI2107
g3349
sI2108
g4761
sI2109
g3360
sI2110
g4835
sI2111
g3367
sI2112
g3370
sI2113
g3223
sI2114
g3398
sI2115
g5071
sI2116
g3405
sI2117
g3413
sI2118
g3419
sI2119
g3424
sI2120
g3428
sI2121
g3431
sI2122
g222
sI2123
g261
sI2124
g3451
sI2125
g3454
sI2126
g3460
sI2127
g3463
sI2128
g3465
sI2129
g3466
sI2130
g3468
sI2131
g3470
sI2132
g3472
sI2133
g3473
sI2134
g3483
sI2135
g3487
sI2136
g3489
sI2137
g3491
sI2138
g3492
sI2139
g3495
sI2140
g3504
sI2141
g3509
sI2142
g3511
sI2143
g3512
sI2144
g3513
sI2145
g3515
sI2146
g3516
sI2147
g3518
sI2148
g3519
sI2149
g809
sI2150
g3532
sI2151
g3533
sI2152
g867
sI2153
g3540
sI2154
g3542
sI2155
g3544
sI2156
g3552
sI2157
g986
sI2158
g3559
sI2159
g3564
sI2160
g3565
sI2161
g3567
sI2162
g3568
sI2163
g3569
sI2164
g3570
sI2165
g3572
sI2166
g3578
sI2167
g1101
sI2168
g3587
sI2169
g3589
sI2170
g3595
sI2171
g3600
sI2172
g3604
sI2173
g1266
sI2174
g144
sI2175
g3617
sI2176
g3621
sI2177
g3630
sI2178
g3634
sI2179
g3636
sI2180
g3637
sI2181
g3642
sI2182
g3643
sI2183
g3646
sI2184
g3651
sI2185
g3670
sI2186
g4882
sI2187
g1644
sI2188
g3677
sI2189
g3678
sI2190
g3679
sI2191
g3683
sI2192
g1740
sI2193
g3688
sI2194
g3691
sI2195
g3692
sI2196
g1805
sI2197
g3696
sI2198
g3699
sI2199
g3700
sI2200
g1838
sI2201
g3703
sI2202
g3706
sI2203
g1880
sI2204
g3711
sI2205
g3716
sI2206
g1929
sI2207
g3721
sI2208
g3723
sI2209
g3725
sI2210
g3737
sI2211
g3743
sI2212
g3744
sI2213
g3750
sI2214
g3751
sI2215
g2121
sI2216
g3755
sI2217
g3756
sI2218
g3762
sI2219
g3763
sI2220
g3767
sI2221
g3768
sI2222
g3772
sI2223
g3777
sI2224
g3779
sI2225
g3783
sI2226
g3787
sI2227
g3788
sI2228
g3790
sI2229
g3808
sI2230
g3817
sI2231
g3835
sI2232
g3838
sI2233
g3839
sI2234
g3844
sI2235
g3847
sI2236
g3849
sI2237
g3850
sI2238
g3855
sI2239
g3856
sI2240
g3861
sI2241
g3867
sI2242
g3872
sI2243
g2760
sI2244
g3876
sI2245
g3879
sI2246
g3882
sI2247
g3884
sI2248
g322
sI2249
g3886
sI2250
g3889
sI2251
g3890
sI2252
g3893
sI2253
g3895
sI2254
g3896
sI2255
g3899
sI2256
g2558
sI2257
g3905
sI2258
g3910
sI2259
g3916
sI2260
g3917
sI2261
g3926
sI2262
g3932
sI2263
g3933
sI2264
g3938
sI2265
g3942
sI2266
g3944
sI2267
g3947
sI2268
g776
sI2269
g3951
sI2270
g3952
sI2271
g3953
sI2272
g3956
sI2273
g3961
sI2274
g3964
sI2275
g3969
sI2276
g3971
sI2277
g3972
sI2278
g3973
sI2279
g3981
sI2280
g3986
sI2281
g147
sI2282
g3476
sI2283
g4014
sI2284
g3592
sI2285
g4022
sI2286
g4025
sI2287
g3625
sI2288
g4028
sI2289
g4031
sI2290
g4035
sI2291
g4038
sI2292
g4039
sI2293
g4040
sI2294
g4045
sI2295
g3752
sI2296
g4048
sI2297
g4055
sI2298
g2902
sI2299
g4064
sI2300
g3903
sI2301
g4073
sI2302
g4052
sI2303
g4076
sI2304
g4084
sI2305
g4085
sI2306
g4087
sI2307
g4058
sI2308
g4099
sI2309
g4103
sI2310
g4104
sI2311
g4137
sI2312
g4112
sI2313
g4115
sI2314
g4218
sI2315
g4123
sI2316
g4126
sI2317
g4277
sI2318
g4136
sI2319
g4139
sI2320
g4140
sI2321
g4146
sI2322
g4147
sI2323
g4150
sI2324
g4155
sI2325
g4159
sI2326
g4170
sI2327
g4172
sI2328
g4182
sI2329
g4680
sI2330
g4192
sI2331
g4696
sI2332
g4197
sI2333
g4204
sI2334
g4210
sI2335
g4211
sI2336
g4212
sI2337
g4220
sI2338
g4225
sI2339
g4237
sI2340
g4240
sI2341
g4241
sI2342
g4250
sI2343
g4258
sI2344
g4260
sI2345
g4264
sI2346
g4265
sI2347
g4267
sI2348
g4278
sI2349
g4285
sI2350
g4287
sI2351
g4290
sI2352
g4292
sI2353
g4299
sI2354
g4309
sI2355
g4311
sI2356
g4314
sI2357
g371
sI2358
g4317
sI2359
g386
sI2360
g413
sI2361
g4325
sI2362
g4331
sI2363
g4332
sI2364
g4334
sI2365
g4339
sI2366
g4340
sI2367
g514
sI2368
g4348
sI2369
g4353
sI2370
g4357
sI2371
g4359
sI2372
g4365
sI2373
g4380
sI2374
g4382
sI2375
g4385
sI2376
g4390
sI2377
g4396
sI2378
g4398
sI2379
g861
sI2380
g4403
sI2381
g4405
sI2382
g4410
sI2383
g4415
sI2384
g4419
sI2385
g4421
sI2386
g4426
sI2387
g2102
sI2388
g4438
sI2389
g4446
sI2390
g4447
sI2391
g4450
sI2392
g4451
sI2393
g1170
sI2394
g4458
sI2395
g4459
sI2396
g4464
sI2397
g4466
sI2398
g4471
sI2399
g4474
sI2400
g1318
sI2401
g4479
sI2402
g4483
sI2403
g3718
sI2404
g4488
sI2405
g4491
sI2406
g4495
sI2407
g4500
sI2408
g1422
sI2409
g4505
sI2410
g4507
sI2411
g4510
sI2412
g4514
sI2413
g4518
sI2414
g4520
sI2415
g4523
sI2416
g4529
sI2417
g4531
sI2418
g4538
sI2419
g1652
sI2420
g4542
sI2421
g4546
sI2422
g4548
sI2423
g4551
sI2424
g4552
sI2425
g4557
sI2426
g4562
sI2427
g4565
sI2428
g4573
sI2429
g4587
sI2430
g1952
sI2431
g1962
sI2432
g4598
sI2433
g962
sI2434
g4614
sI2435
g1233
sI2436
g4622
sI2437
g4623
sI2438
g4628
sI2439
g4629
sI2440
g4635
sI2441
g4638
sI2442
g4641
sI2443
g4642
sI2444
g2285
sI2445
g4649
sI2446
g4652
sI2447
g4659
sI2448
g4662
sI2449
g249
sI2450
g4666
sI2451
g4672
sI2452
g4113
sI2453
g4674
sI2454
g4676
sI2455
g4682
sI2456
g4686
sI2457
g4703
sI2458
g4706
sI2459
g4712
sI2460
g4716
sI2461
g4735
sI2462
g4742
sI2463
g4749
sI2464
g4750
sI2465
g4753
sI2466
g4756
sI2467
g4757
sI2468
g4758
sI2469
g4762
sI2470
g4771
sI2471
g4772
sI2472
g4776
sI2473
g862
sI2474
g4780
sI2475
g4782
sI2476
g4784
sI2477
g4789
sI2478
g4796
sI2479
g3201
sI2480
g3232
sI2481
g4810
sI2482
g4815
sI2483
g2032
sI2484
g4821
sI2485
g4836
sI2486
g4841
sI2487
g4845
sI2488
g3467
sI2489
g4276
sI2490
g4854
sI2491
g4859
sI2492
g3531
sI2493
g4862
sI2494
g3389
sI2495
g4873
sI2496
g4877
sI2497
g4878
sI2498
g4883
sI2499
g4887
sI2500
g4889
sI2501
g4894
sI2502
g4895
sI2503
g4909
sI2504
g4911
sI2505
g4912
sI2506
g4917
sI2507
g4928
sI2508
g4935
sI2509
g4936
sI2510
g4942
sI2511
g4946
sI2512
g2332
sI2513
g4951
sI2514
g4957
sI2515
g4965
sI2516
g4966
sI2517
g4972
sI2518
g4978
sI2519
g4979
sI2520
g4985
sI2521
g5116
sI2522
g4992
sI2523
g4429
sI2524
g4996
sI2525
g5002
sI2526
g5009
sI2527
g5013
sI2528
g5016
sI2529
g5020
sI2530
g5023
sI2531
g5028
sI2532
g5031
sI2533
g5034
sI2534
g4664
sI2535
g5041
sI2536
g5044
sI2537
g5045
sI2538
g5047
sI2539
g5048
sI2540
g5050
sI2541
g5051
sI2542
g5054
sI2543
g5055
sI2544
g5057
sI2545
g5059
sI2546
g5060
sI2547
g5063
sI2548
g5065
sI2549
g5070
sI2550
g2177
sI2551
g5073
sI2552
g5086
sI2553
g5088
sI2554
g4971
sI2555
g5102
sI2556
g5105
sI2557
g5112
sI2558
g5113
sI2559
g5091
sI2560
g57
sI2561
g2041
sI2562
g170
sI2563
g70
sI2564
g71
sI2565
g2806
sI2566
g84
sI2567
g86
sI2568
g90
sI2569
g98
sI2570
g4499
sI2571
g105
sI2572
g106
sI2573
g1845
sI2574
g4783
sI2575
g3582
sI2576
g116
sI2577
g127
sI2578
g138
sI2579
g140
sI2580
g143
sI2581
g145
sI2582
g154
sI2583
g157
sI2584
g159
sI2585
g162
sI2586
g171
sI2587
g172
sI2588
g174
sI2589
g857
sI2590
g869
sI2591
g907
sI2592
g190
sI2593
g194
sI2594
g998
sI2595
g205
sI2596
g906
sI2597
g219
sI2598
g221
sI2599
g226
sI2600
g3260
sI2601
g1831
sI2602
g1236
sI2603
g244
sI2604
g246
sI2605
g1277
sI2606
g256
sI2607
g1339
sI2608
g262
sI2609
g264
sI2610
g1415
sI2611
g271
sI2612
g275
sI2613
g1469
sI2614
g281
sI2615
g1524
sI2616
g294
sI2617
g4768
sI2618
g301
sI2619
g308
sI2620
g309
sI2621
g311
sI2622
g324
sI2623
g326
sI2624
g1756
sI2625
g333
sI2626
g337
sI2627
g340
sI2628
g341
sI2629
g354
sI2630
g361
sI2631
g364
sI2632
g366
sI2633
g368
sI2634
g372
sI2635
g2087
sI2636
g390
sI2637
g2715
sI2638
g395
sI2639
g399
sI2640
g403
sI2641
g405
sI2642
g4938
sI2643
g407
sI2644
g409
sI2645
g412
sI2646
g417
sI2647
g422
sI2648
g426
sI2649
g428
sI2650
g429
sI2651
g2396
sI2652
g2406
sI2653
g438
sI2654
g443
sI2655
g444
sI2656
g2472
sI2657
g448
sI2658
g2536
sI2659
g467
sI2660
g469
sI2661
g2682
sI2662
g3586
sI2663
g2758
sI2664
g496
sI2665
g497
sI2666
g498
sI2667
g501
sI2668
g504
sI2669
g505
sI2670
g507
sI2671
g2865
sI2672
g2874
sI2673
g523
sI2674
g524
sI2675
g527
sI2676
g2937
sI2677
g532
sI2678
g2993
sI2679
g538
sI2680
g2580
sI2681
g545
sI2682
g551
sI2683
g553
sI2684
g1766
sI2685
g561
sI2686
g565
sI2687
g3197
sI2688
g3218
sI2689
g571
sI2690
g576
sI2691
g577
sI2692
g578
sI2693
g580
sI2694
g581
sI2695
g3323
sI2696
g3332
sI2697
g598
sI2698
g599
sI2699
g2592
sI2700
g605
sI2701
g610
sI2702
g616
sI2703
g620
sI2704
g621
sI2705
g622
sI2706
g3506
sI2707
g625
sI2708
g627
sI2709
g631
sI2710
g1720
sI2711
g3618
sI2712
g654
sI2713
g661
sI2714
g3738
sI2715
g669
sI2716
g675
sI2717
g3800
sI2718
g679
sI2719
g681
sI2720
g685
sI2721
g690
sI2722
g703
sI2723
g3976
sI2724
g709
sI2725
g712
sI2726
g713
sI2727
g719
sI2728
g723
sI2729
g724
sI2730
g725
sI2731
g726
sI2732
g733
sI2733
g734
sI2734
g736
sI2735
g737
sI2736
g738
sI2737
g742
sI2738
g748
sI2739
g4181
sI2740
g4207
sI2741
g757
sI2742
g4249
sI2743
g765
sI2744
g766
sI2745
g770
sI2746
g772
sI2747
g773
sI2748
g775
sI2749
g4391
sI2750
g795
sI2751
g800
sI2752
g801
sI2753
g815
sI2754
g817
sI2755
g1451
sI2756
g820
sI2757
g821
sI2758
g824
sI2759
g828
sI2760
g836
sI2761
g841
sI2762
g4857
sI2763
g4797
sI2764
g4833
sI2765
g879
sI2766
g882
sI2767
g883
sI2768
g885
sI2769
g1329
sI2770
g889
sI2771
g4603
sI2772
g899
sI2773
g903
sI2774
g910
sI2775
g4443
sI2776
g914
sI2777
g176
sI2778
g930
sI2779
g935
sI2780
g946
sI2781
g949
sI2782
g2959
sI2783
g952
sI2784
g1961
sI2785
g4708
sI2786
g957
sI2787
g389
sI2788
g655
sI2789
g968
sI2790
g976
sI2791
g978
sI2792
g980
sI2793
g984
sI2794
g988
sI2795
g991
sI2796
g995
sI2797
g999
sI2798
g1772
sI2799
g1218
sI2800
g1013
sI2801
g1015
sI2802
g1018
sI2803
g1025
sI2804
g1028
sI2805
g1032
sI2806
g1046
sI2807
g1050
sI2808
g1066
sI2809
g1090
sI2810
g1071
sI2811
g1076
sI2812
g1080
sI2813
g1093
sI2814
g1095
sI2815
g1100
sI2816
g1105
sI2817
g1113
sI2818
g1122
sI2819
g1370
sI2820
g1463
sI2821
g1506
sI2822
g1146
sI2823
g1149
sI2824
g1591
sI2825
g1152
sI2826
g1163
sI2827
g1168
sI2828
g1736
sI2829
g1174
sI2830
g1176
sI2831
g1178
sI2832
g1181
sI2833
g1182
sI2834
g1187
sI2835
g1188
sI2836
g1846
sI2837
g1191
sI2838
g1193
sI2839
g1194
sI2840
g1199
sI2841
g1926
sI2842
g4892
sI2843
g1205
sI2844
g4819
sI2845
g1208
sI2846
g1212
sI2847
g1214
sI2848
g1985
sI2849
g1223
sI2850
g1226
sI2851
g2068
sI2852
g2516
sI2853
g1243
sI2854
g1252
sI2855
g2199
sI2856
g1256
sI2857
g1259
sI2858
g2242
sI2859
g1262
sI2860
g2271
sI2861
g2302
sI2862
g1271
sI2863
g1275
sI2864
g1281
sI2865
g1294
sI2866
g1297
sI2867
g1307
sI2868
g1309
sI2869
g1313
sI2870
g1317
sI2871
g1323
sI2872
g1326
sI2873
g1335
sI2874
g1341
sI2875
g1353
sI2876
g1356
sI2877
g1357
sI2878
g1359
sI2879
g1363
sI2880
g2859
sI2881
g1371
sI2882
g1383
sI2883
g1388
sI2884
g1390
sI2885
g1393
sI2886
g1395
sI2887
g1398
sI2888
g1401
sI2889
g1414
sI2890
g3214
sI2891
g1420
sI2892
g1423
sI2893
g3836
sI2894
g1431
sI2895
g1389
sI2896
g1441
sI2897
g1442
sI2898
g3357
sI2899
g1446
sI2900
g1447
sI2901
g3425
sI2902
g1455
sI2903
g1456
sI2904
g3480
sI2905
g1464
sI2906
g1473
sI2907
g3536
sI2908
g1483
sI2909
g1489
sI2910
g1490
sI2911
g3667
sI2912
g1498
sI2913
g435
sI2914
g1500
sI2915
g1504
sI2916
g1505
sI2917
g1512
sI2918
g1514
sI2919
g1515
sI2920
g1517
sI2921
g1519
sI2922
g1520
sI2923
g1521
sI2924
g3845
sI2925
g1528
sI2926
g1531
sI2927
g3929
sI2928
g4741
sI2929
g1550
sI2930
g3823
sI2931
g1555
sI2932
g4066
sI2933
g1560
sI2934
g4093
sI2935
g1567
sI2936
g1569
sI2937
g1573
sI2938
g1583
sI2939
g4244
sI2940
g1585
sI2941
g1600
sI2942
g597
sI2943
g4412
sI2944
g1610
sI2945
g1618
sI2946
g1626
sI2947
g1627
sI2948
g699
sI2949
g1640
sI2950
g1648
sI2951
g1649
sI2952
g1650
sI2953
g1656
sI2954
g1658
sI2955
g1661
sI2956
g931
sI2957
g4725
sI2958
g4729
sI2959
g1669
sI2960
g1670
sI2961
g2985
sI2962
g1688
sI2963
g4823
sI2964
g4827
sI2965
g1694
sI2966
g4870
sI2967
g2357
sI2968
g4906
sI2969
g4910
sI2970
g1713
sI2971
g1714
sI2972
g1715
sI2973
g1722
sI2974
g4999
sI2975
g3030
sI2976
g1732
sI2977
g1747
sI2978
g1751
sI2979
g101
sI2980
g5033
sI2981
g1769
sI2982
g1770
sI2983
g1771
sI2984
g231
sI2985
g1783
sI2986
g1785
sI2987
g1889
sI2988
g1789
sI2989
g1796
sI2990
g1800
sI2991
g1806
sI2992
g424
sI2993
g1810
sI2994
g1817
sI2995
g1820
sI2996
g522
sI2997
g539
sI2998
g1830
sI2999
g1832
sI3000
g1833
sI3001
g1836
sI3002
g1837
sI3003
g1839
sI3004
g1840
sI3005
g642
sI3006
g1852
sI3007
g1853
sI3008
g1854
sI3009
g1859
sI3010
g1861
sI3011
g2072
sI3012
g1864
sI3013
g2269
sI3014
g1879
sI3015
g1883
sI3016
g2159
sI3017
g1912
sI3018
g1913
sI3019
g1096
sI3020
g1922
sI3021
g1923
sI3022
g1924
sI3023
g1925
sI3024
g1155
sI3025
g3485
sI3026
g1936
sI3027
g1940
sI3028
g1944
sI3029
g3190
sI3030
g1951
sI3031
g1953
sI3032
g1957
sI3033
g1965
sI3034
g1976
sI3035
g1564
sI3036
g1988
sI3037
g1998
sI3038
g1660
sI3039
g2002
sI3040
g1723
sI3041
g1746
sI3042
g2020
sI3043
g2026
sI3044
g1827
sI3045
g2037
sI3046
g2038
sI3047
g2042
sI3048
g1955
sI3049
g2012
sI3050
g2073
sI3051
g2076
sI3052
g2078
sI3053
g2120
sI3054
g2089
sI3055
g2178
sI3056
g2093
sI3057
g2101
sI3058
g2105
sI3059
g2111
sI3060
g550
sI3061
g2342
sI3062
g2350
sI3063
g2125
sI3064
g2129
sI3065
g2136
sI3066
g2137
sI3067
g2477
sI3068
g3968
sI3069
g2526
sI3070
g2162
sI3071
g2165
sI3072
g2169
sI3073
g396
sI3074
g2175
sI3075
g2176
sI3076
g2179
sI3077
g2180
sI3078
g2181
sI3079
g2183
sI3080
g2189
sI3081
g3998
sI3082
g2194
sI3083
g2851
sI3084
g2208
sI3085
g2213
sI3086
g2939
sI3087
g2215
sI3088
g2216
sI3089
g2218
sI3090
g2221
sI3091
g2223
sI3092
g2225
sI3093
g3010
sI3094
g2240
sI3095
g2243
sI3096
g2246
sI3097
g2247
sI3098
g2248
sI3099
g2250
sI3100
g2252
sI3101
g2254
sI3102
g2255
sI3103
g2257
sI3104
g2258
sI3105
g2259
sI3106
g2263
sI3107
g3284
sI3108
g2272
sI3109
g2275
sI3110
g3433
sI3111
g4298
sI3112
g2282
sI3113
g2286
sI3114
g2294
sI3115
g2295
sI3116
g2297
sI3117
g2298
sI3118
g2301
sI3119
g2303
sI3120
g2311
sI3121
g2316
sI3122
g3547
sI3123
g2319
sI3124
g2325
sI3125
g2328
sI3126
g2333
sI3127
g3654
sI3128
g2341
sI3129
g369
sI3130
g1701
sI3131
g2346
sI3132
g2347
sI3133
g2353
sI3134
g2356
sI3135
g2362
sI3136
g2364
sI3137
g2376
sI3138
g2380
sI3139
g2381
sI3140
g2386
sI3141
g2388
sI3142
g2389
sI3143
g2390
sI3144
g4060
sI3145
g4154
sI3146
g2407
sI3147
g884
sI3148
g4826
sI3149
g4280
sI3150
g2431
sI3151
g2435
sI3152
g2436
sI3153
g2448
sI3154
g2449
sI3155
g2454
sI3156
g2467
sI3157
g2469
sI3158
g2471
sI3159
g2478
sI3160
g2483
sI3161
g4718
sI3162
g2495
sI3163
g2498
sI3164
g2502
sI3165
g2505
sI3166
g2510
sI3167
g2515
sI3168
g2520
sI3169
g2532
sI3170
g2534
sI3171
g2535
sI3172
g4794
sI3173
g2539
sI3174
g2548
sI3175
g2552
sI3176
g2555
sI3177
g4097
sI3178
g2559
sI3179
g2565
sI3180
g2574
sI3181
g2576
sI3182
g2578
sI3183
g2581
sI3184
g3894
sI3185
g2584
sI3186
g197
sI3187
g220
sI3188
g2598
sI3189
g2599
sI3190
g2613
sI3191
g2617
sI3192
g2619
sI3193
g2622
sI3194
g3666
sI3195
g2629
sI3196
g1863
sI3197
g2632
sI3198
g751
sI3199
g2636
sI3200
g2821
sI3201
g2642
sI3202
g4532
sI3203
g2646
sI3204
g1741
sI3205
g2653
sI3206
g2655
sI3207
g1999
sI3208
g2661
sI3209
g2662
sI3210
g2664
sI3211
g735
sI3212
g2674
sI3213
g2676
sI3214
g2677
sI3215
g814
sI3216
g2686
sI3217
g829
sI3218
g2690
sI3219
g2691
sI3220
g2693
sI3221
g2696
sI3222
g2698
sI3223
g2702
sI3224
g2703
sI3225
g2705
sI3226
g3523
sI3227
g2712
sI3228
g1024
sI3229
g2727
sI3230
g2730
sI3231
g2732
sI3232
g4379
sI3233
g2736
sI3234
g1109
sI3235
g2742
sI3236
g2743
sI3237
g2749
sI3238
g2750
sI3239
g2751
sI3240
g2752
sI3241
g4947
sI3242
g1239
sI3243
g132
sI3244
g2765
sI3245
g4079
sI3246
g2777
sI3247
g2778
sI3248
g2792
sI3249
g2802
sI3250
g4637
sI3251
g2805
sI3252
g2808
sI3253
g2809
sI3254
g2812
sI3255
g2816
sI3256
g2820
sI3257
g1612
sI3258
g2824
sI3259
g2826
sI3260
g2827
sI3261
g2839
sI3262
g2840
sI3263
g2842
sI3264
g4654
sI3265
g1788
sI3266
g2854
sI3267
g2857
sI3268
g2864
sI3269
g664
sI3270
g2866
sI3271
g2867
sI3272
g2869
sI3273
g1894
sI3274
g1920
sI3275
g1941
sI3276
g2880
sI3277
g2881
sI3278
g2882
sI3279
g2883
sI3280
g1975
sI3281
g2015
sI3282
g2897
sI3283
g2044
sI3284
g2058
sI3285
g2903
sI3286
g2096
sI3287
g2912
sI3288
g2917
sI3289
g2233
sI3290
g2930
sI3291
g2932
sI3292
g2936
sI3293
g2940
sI3294
g462
sI3295
g2950
sI3296
g2965
sI3297
g2967
sI3298
g2971
sI3299
g2973
sI3300
g2975
sI3301
g2977
sI3302
g2986
sI3303
g2573
sI3304
g2997
sI3305
g2998
sI3306
g3003
sI3307
g2728
sI3308
g3016
sI3309
g2088
sI3310
g3028
sI3311
g2825
sI3312
g3032
sI3313
g3033
sI3314
g3036
sI3315
g3038
sI3316
g3042
sI3317
g3059
sI3318
g3061
sI3319
g3063
sI3320
g3072
sI3321
g3074
sI3322
g3076
sI3323
g3078
sI3324
g3092
sI3325
g3288
sI3326
g3292
sI3327
g3301
sI3328
g3102
sI3329
g3108
sI3330
g3111
sI3331
g3116
sI3332
g1161
sI3333
g4651
sI3334
g3443
sI3335
g3136
sI3336
g3499
sI3337
g3141
sI3338
g3142
sI3339
g3144
sI3340
g3521
sI3341
g2161
sI3342
g3157
sI3343
g3158
sI3344
g3178
sI3345
g3181
sI3346
g3182
sI3347
g3186
sI3348
g3236
sI3349
g3774
sI3350
g3191
sI3351
g3196
sI3352
g3213
sI3353
g3215
sI3354
g3238
sI3355
g3252
sI3356
g4141
sI3357
g4156
sI3358
g3257
sI3359
g4165
sI3360
g3263
sI3361
g4223
sI3362
g3272
sI3363
g4274
sI3364
g3279
sI3365
g4406
sI3366
g4351
sI3367
g4362
sI3368
g3295
sI3369
g3302
sI3370
g3152
sI3371
g3307
sI3372
g3309
sI3373
g3310
sI3374
g3313
sI3375
g3314
sI3376
g2639
sI3377
g3328
sI3378
g3329
sI3379
g3330
sI3380
g3336
sI3381
g4671
sI3382
g3345
sI3383
g3347
sI3384
g3348
sI3385
g3351
sI3386
g3352
sI3387
g3355
sI3388
g3359
sI3389
g3364
sI3390
g3366
sI3391
g3369
sI3392
g3372
sI3393
g3375
sI3394
g3383
sI3395
g5004
sI3396
g716
sI3397
g3407
sI3398
g2739
sI3399
g3420
sI3400
g137
sI3401
g180
sI3402
g3430
sI3403
g4373
sI3404
g3432
sI3405
g238
sI3406
g2134
sI3407
g3445
sI3408
g3449
sI3409
g3459
sI3410
g3462
sI3411
g375
sI3412
g3469
sI3413
g414
sI3414
g486
sI3415
g3486
sI3416
g587
sI3417
g3497
sI3418
g3500
sI3419
g688
sI3420
g3508
sI3421
g4560
sI3422
g3517
sI3423
g3522
sI3424
g3530
sI3425
g3535
sI3426
g3539
sI3427
g3545
sI3428
g3551
sI3429
g3557
sI3430
g210
sI3431
g3560
sI3432
g3563
sI3433
g3906
sI3434
g4295
sI3435
g1049
sI3436
g1765
sI3437
g3579
sI3438
g318
sI3439
g3590
sI3440
g3596
sI3441
g3601
sI3442
g3603
sI3443
g3607
sI3444
g3613
sI3445
g3615
sI3446
g3619
sI3447
g799
sI3448
g3628
sI3449
g3633
sI3450
g3641
sI3451
g3647
sI3452
g3648
sI3453
g3652
sI3454
g3657
sI3455
g3665
sI3456
g3680
sI3457
g3681
sI3458
g3682
sI3459
g3685
sI3460
g3690
sI3461
g3697
sI3462
g3698
sI3463
g4367
sI3464
g3704
sI3465
g3705
sI3466
g3820
sI3467
g3708
sI3468
g3710
sI3469
g3719
sI3470
g2572
sI3471
g3729
sI3472
g3732
sI3473
g2009
sI3474
g2031
sI3475
g2108
sI3476
g3753
sI3477
g3757
sI3478
g3766
sI3479
g3770
sI3480
g3773
sI3481
g3776
sI3482
g3784
sI3483
g3785
sI3484
g2290
sI3485
g3794
sI3486
g3797
sI3487
g3803
sI3488
g3805
sI3489
g3810
sI3490
g3813
sI3491
g2451
sI3492
g3824
sI3493
g3828
sI3494
g3830
sI3495
g3832
sI3496
g4813
sI3497
g2544
sI3498
g3848
sI3499
g1384
sI3500
g4699
sI3501
g3857
sI3502
g3859
sI3503
g3863
sI3504
g3864
sI3505
g3869
sI3506
g3871
sI3507
g2718
sI3508
g3878
sI3509
g3887
sI3510
g2841
sI3511
g2432
sI3512
g3904
sI3513
g3908
sI3514
g3909
sI3515
g3912
sI3516
g4430
sI3517
g3919
sI3518
g3925
sI3519
g3928
sI3520
g3930
sI3521
g3934
sI3522
g3107
sI3523
g4643
sI3524
g3151
sI3525
g3955
sI3526
g3960
sI3527
g4575
sI3528
g3967
sI3529
g3308
sI3530
g3991
sI3531
g3455
sI3532
g3995
sI3533
g3198
sI3534
g4004
sI3535
g4005
sI3536
g4006
sI3537
g4011
sI3538
g4013
sI3539
g3581
sI3540
g4019
sI3541
g5089
sI3542
g4023
sI3543
g4024
sI3544
g3638
sI3545
g4029
sI3546
g4042
sI3547
g4043
sI3548
g4044
sI3549
g3736
sI3550
g3786
sI3551
g4054
sI3552
g4057
sI3553
g692
sI3554
g4062
sI3555
g4069
sI3556
g4075
sI3557
g4077
sI3558
g4080
sI3559
g4081
sI3560
g4086
sI3561
g1532
sI3562
g3017
sI3563
g4091
sI3564
g4096
sI3565
g4098
sI3566
g4102
sI3567
g1230
sI3568
g4125
sI3569
g4110
sI3570
g4116
sI3571
g4117
sI3572
g468
sI3573
g4239
sI3574
g4251
sI3575
g4135
sI3576
g4143
sI3577
g4389
sI3578
g4149
sI3579
g4153
sI3580
g4449
sI3581
g4162
sI3582
g4517
sI3583
g4167
sI3584
g265
sI3585
g4574
sI3586
g4178
sI3587
g4621
sI3588
g4183
sI3589
g4189
sI3590
g4208
sI3591
g4213
sI3592
g4842
sI3593
g480
sI3594
g4224
sI3595
g4227
sI3596
g4228
sI3597
g4235
sI3598
g4238
sI3599
g1073
sI3600
g477
sI3601
g4242
sI3602
g4243
sI3603
g4247
sI3604
g4252
sI3605
g4256
sI3606
g5096
sI3607
g4271
sI3608
g4272
sI3609
g2892
sI3610
g148
sI3611
g4281
sI3612
g4286
sI3613
g3249
sI3614
g1432
sI3615
g1419
sI3616
g4300
sI3617
g4319
sI3618
g4320
sI3619
g807
sI3620
g4328
sI3621
g4329
sI3622
g4330
sI3623
g4335
sI3624
g179
sI3625
g4342
sI3626
g4345
sI3627
g4349
sI3628
g4358
sI3629
g612
sI3630
g1480
sI3631
g4361
sI3632
g658
sI3633
g4368
sI3634
g4371
sI3635
g4378
sI3636
g745
sI3637
g806
sI3638
g4393
sI3639
g831
sI3640
g4399
sI3641
g4408
sI3642
g4409
sI3643
g4413
sI3644
g4418
sI3645
g4422
sI3646
g4423
sI3647
g4428
sI3648
g4431
sI3649
g4441
sI3650
g4442
sI3651
g4445
sI3652
g1129
sI3653
g1141
sI3654
g4452
sI3655
g4454
sI3656
g4455
sI3657
g4456
sI3658
g4457
sI3659
g1215
sI3660
g4465
sI3661
g1264
sI3662
g677
sI3663
g4480
sI3664
g4481
sI3665
g4492
sI3666
g1399
sI3667
g1406
sI3668
g4509
sI3669
g4549
sI3670
g4513
sI3671
g4524
sI3672
g1575
sI3673
g4537
sI3674
g4540
sI3675
g1663
sI3676
g4545
sI3677
g4550
sI3678
g2029
sI3679
g4555
sI3680
g4556
sI3681
g1815
sI3682
g4567
sI3683
g4568
sI3684
g4578
sI3685
g4582
sI3686
g4791
sI3687
g4595
sI3688
g4597
sI3689
g4604
sI3690
g2055
sI3691
g4607
sI3692
g4609
sI3693
g2106
sI3694
g4616
sI3695
g4626
sI3696
g4660
sI3697
g4670
sI3698
g4914
sI3699
g2440
sI3700
g4683
sI3701
g4691
sI3702
g4692
sI3703
g4693
sI3704
g4698
sI3705
g2582
sI3706
g4720
sI3707
g4724
sI3708
g4734
sI3709
g4739
sI3710
g4745
sI3711
g4747
sI3712
g2835
sI3713
g4751
sI3714
g4755
sI3715
g2370
sI3716
g4765
sI3717
g4766
sI3718
g2996
sI3719
g4773
sI3720
g4777
sI3721
g3073
sI3722
g4787
sI3723
g3103
sI3724
g4790
sI3725
g252
sI3726
g4795
sI3727
g4799
sI3728
g4803
sI3729
g4806
sI3730
g3228
sI3731
g4812
sI3732
g4814
sI3733
g3481
sI3734
g4822
sI3735
g4825
sI3736
g4840
sI3737
g4843
sI3738
g4848
sI3739
g4851
sI3740
g2277
sI3741
g102
sI3742
g4009
sI3743
g4860
sI3744
g4863
sI3745
g4864
sI3746
g3553
sI3747
g4868
sI3748
g3090
sI3749
g4885
sI3750
g4401
sI3751
g4893
sI3752
g4897
sI3753
g3789
sI3754
g4903
sI3755
g4918
sI3756
g4921
sI3757
g4922
sI3758
g3966
sI3759
g4925
sI3760
g4930
sI3761
g4932
sI3762
g4934
sI3763
g4037
sI3764
g771
sI3765
g4945
sI3766
g245
sI3767
g4955
sI3768
g4958
sI3769
g4960
sI3770
g4962
sI3771
g666
sI3772
g4973
sI3773
g4974
sI3774
g4975
sI3775
g4977
sI3776
g4308
sI3777
g4982
sI3778
g4988
sI3779
g5001
sI3780
g5006
sI3781
g5007
sI3782
g2464
sI3783
g5012
sI3784
g5014
sI3785
g5015
sI3786
g4564
sI3787
g5021
sI3788
g5025
sI3789
g5029
sI3790
g613
sI3791
g5039
sI3792
g789
sI3793
g4723
sI3794
g2016
sI3795
g5076
sI3796
g5077
sI3797
g5083
sI3798
g5085
sI3799
g4926
sI3800
g4941
sI3801
g5095
sI3802
g2517
sI3803
g5107
sI3804
g5111
sI3805
g1153
sI3806
g4171
sI3807
g5118
sI3808
g1812
sI3809
g51
sI3810
g3954
sI3811
g60
sI3812
g61
sI3813
g64
sI3814
g163
sI3815
g69
sI3816
g182
sI3817
g75
sI3818
g79
sI3819
g80
sI3820
g83
sI3821
g2195
sI3822
g3639
sI3823
g87
sI3824
g3200
sI3825
g103
sI3826
g104
sI3827
g115
sI3828
g478
sI3829
g483
sI3830
g128
sI3831
g129
sI3832
g1900
sI3833
g135
sI3834
g592
sI3835
g653
sI3836
g151
sI3837
g152
sI3838
g693
sI3839
g156
sI3840
g729
sI3841
g3873
sI3842
g161
sI3843
g168
sI3844
g852
sI3845
g810
sI3846
g2748
sI3847
g187
sI3848
g188
sI3849
g193
sI3850
g972
sI3851
g198
sI3852
g200
sI3853
g203
sI3854
g1062
sI3855
g216
sI3856
g234
sI3857
g235
sI3858
g1566
sI3859
g260
sI3860
g1366
sI3861
g266
sI3862
g1408
sI3863
g1445
sI3864
g278
sI3865
g284
sI3866
g285
sI3867
g289
sI3868
g291
sI3869
g293
sI3870
g1541
sI3871
g295
sI3872
g310
sI3873
g314
sI3874
g317
sI3875
g609
sI3876
g328
sI3877
g329
sI3878
g1764
sI3879
g334
sI3880
g2607
sI3881
g4743
sI3882
g345
sI3883
g347
sI3884
g349
sI3885
g351
sI3886
g356
sI3887
g357
sI3888
g363
sI3889
g1987
sI3890
g4594
sI3891
g3009
sI3892
g2047
sI3893
g378
sI3894
g380
sI3895
g381
sI3896
g1324
sI3897
g394
sI3898
g4425
sI3899
g410
sI3900
g2244
sI3901
g430
sI3902
g437
sI3903
g2438
sI3904
g442
sI3905
g449
sI3906
g2512
sI3907
g454
sI3908
g458
sI3909
g464
sI3910
g2595
sI3911
g466
sI3912
g2633
sI3913
g2652
sI3914
g474
sI3915
g476
sI3916
g3749
sI3917
g1991
sI3918
g493
sI3919
g2775
sI3920
g2082
sI3921
g500
sI3922
g508
sI3923
g516
sI3924
g3555
sI3925
g2933
sI3926
g2943
sI3927
g2995
sI3928
g4034
sI3929
g541
sI3930
g4067
sI3931
g546
sI3932
g3049
sI3933
g3080
sI3934
g557
sI3935
g3168
sI3936
g563
sI3937
g4388
sI3938
g3247
sI3939
g3273
sI3940
g1589
sI3941
g589
sI3942
g636
sI3943
g3365
sI3944
g3384
sI3945
g287
sI3946
g3406
sI3947
g3409
sI3948
g606
sI3949
g1042
sI3950
g3427
sI3951
g626
sI3952
g639
sI3953
g3640
sI3954
g651
sI3955
g3664
sI3956
g656
sI3957
g660
sI3958
g671
sI3959
g674
sI3960
g3819
sI3961
g683
sI3962
g686
sI3963
g689
sI3964
g3880
sI3965
g691
sI3966
g2145
sI3967
g696
sI3968
g704
sI3969
g706
sI3970
g707
sI3971
g710
sI3972
g714
sI3973
g387
sI3974
g4082
sI3975
g4108
sI3976
g3380
sI3977
g4152
sI3978
g1611
sI3979
g763
sI3980
g764
sI3981
g767
sI3982
g4901
sI3983
g4301
sI3984
g778
sI3985
g783
sI3986
g790
sI3987
g2823
sI3988
g794
sI3989
g796
sI3990
g797
sI3991
g4199
sI3992
g4504
sI3993
g4536
sI3994
g819
sI3995
g2338
sI3996
g4601
sI3997
g4618
sI3998
g1338
sI3999
g3094
sI4000
g834
sI4001
g835
sI4002
g837
sI4003
g838
sI4004
g845
sI4005
g4746
sI4006
g5106
sI4007
g853
sI4008
g1617
sI4009
g858
sI4010
g863
sI4011
g865
sI4012
g1712
sI4013
g870
sI4014
g872
sI4015
g876
sI4016
g4984
sI4017
g887
sI4018
g893
sI4019
g900
sI4020
g901
sI4021
g963
sI4022
g76
sI4023
g912
sI4024
g915
sI4025
g4727
sI4026
g919
sI4027
g921
sI4028
g923
sI4029
g2465
sI4030
g926
sI4031
g927
sI4032
g4020
sI4033
g214
sI4034
g937
sI4035
g940
sI4036
g941
sI4037
g1857
sI4038
g947
sI4039
g948
sI4040
g4414
sI4041
g355
sI4042
g958
sI4043
g2324
sI4044
g420
sI4045
g967
sI4046
g970
sI4047
g975
sI4048
g979
sI4049
g981
sI4050
g982
sI4051
g983
sI4052
g987
sI4053
g989
sI4054
g997
sI4055
g4148
sI4056
g1002
sI4057
g1007
sI4058
g1016
sI4059
g3985
sI4060
g1021
sI4061
g1672
sI4062
g1030
sI4063
g792
sI4064
g2785
sI4065
g1038
sI4066
g1040
sI4067
g1045
sI4068
g1047
sI4069
g1051
sI4070
g1017
sI4071
g1059
sI4072
g1067
sI4073
g1072
sI4074
g1075
sI4075
g1299
sI4076
g1085
sI4077
g1089
sI4078
g3674
sI4079
g1102
sI4080
g1103
sI4081
g1104
sI4082
g1111
sI4083
g1115
sI4084
g1121
sI4085
g1123
sI4086
g1125
sI4087
g1127
sI4088
g1130
sI4089
g3121
sI4090
g1138
sI4091
g2585
sI4092
g1142
sI4093
g1144
sI4094
g1145
sI4095
g1148
sI4096
g1603
sI4097
g1156
sI4098
g1631
sI4099
g1159
sI4100
g2948
sI4101
g1166
sI4102
g657
sI4103
g1183
sI4104
g1823
sI4105
g1829
sI4106
g1198
sI4107
g839
sI4108
g1932
sI4109
g1937
sI4110
g1970
sI4111
g1427
sI4112
g1221
sI4113
g1222
sI4114
g4847
sI4115
g2050
sI4116
g2061
sI4117
g2071
sI4118
g1234
sI4119
g1238
sI4120
g1240
sI4121
g2118
sI4122
g4581
sI4123
g1245
sI4124
g1248
sI4125
g1249
sI4126
g1250
sI4127
g3276
sI4128
g3149
sI4129
g2239
sI4130
g2079
sI4131
g1267
sI4132
g1269
sI4133
g1279
sI4134
g1289
sI4135
g1291
sI4136
g1292
sI4137
g2428
sI4138
g2441
sI4139
g2459
sI4140
g2462
sI4141
g1311
sI4142
g1321
sI4143
g1322
sI4144
g1325
sI4145
g1330
sI4146
g2717
sI4147
g1342
sI4148
g2734
sI4149
g2737
sI4150
g1348
sI4151
g1349
sI4152
g2776
sI4153
g2781
sI4154
g2188
sI4155
g2813
sI4156
g2818
sI4157
g1365
sI4158
g3834
sI4159
g1369
sI4160
g2873
sI4161
g1382
sI4162
g3005
sI4163
g1396
sI4164
g313
sI4165
g1407
sI4166
g3161
sI4167
g1409
sI4168
g4967
sI4169
g3211
sI4170
g1418
sI4171
g3242
sI4172
g1558
sI4173
g3300
sI4174
g1434
sI4175
g1436
sI4176
g1440
sI4177
g4732
sI4178
g4354
sI4179
g1882
sI4180
g288
sI4181
g4065
sI4182
g3524
sI4183
g1478
sI4184
g1482
sI4185
g2198
sI4186
g4801
sI4187
g3672
sI4188
g1497
sI4189
g3796
sI4190
g1516
sI4191
g1518
sI4192
g3888
sI4193
g3363
sI4194
g1549
sI4195
g484
sI4196
g1544
sI4197
g1561
sI4198
g4106
sI4199
g4120
sI4200
g315
sI4201
g1579
sI4202
g4257
sI4203
g149
sI4204
g3373
sI4205
g1592
sI4206
g1597
sI4207
g1599
sI4208
g1602
sI4209
g4387
sI4210
g1608
sI4211
g1614
sI4212
g1615
sI4213
g1619
sI4214
g1622
sI4215
g4497
sI4216
g2675
sI4217
g1637
sI4218
g1540
sI4219
g2470
sI4220
g4599
sI4221
g4605
sI4222
g1654
sI4223
g1655
sI4224
g1664
sI4225
g4719
sI4226
g4763
sI4227
g1687
sI4228
g1172
sI4229
g206
sI4230
g4875
sI4231
g4898
sI4232
g1711
sI4233
g1719
sI4234
g1725
sI4235
g1728
sI4236
g1731
sI4237
g3747
sI4238
g1246
sI4239
g5100
sI4240
g1743
sI4241
g1749
sI4242
g97
sI4243
g2113
sI4244
g1755
sI4245
g118
sI4246
g139
sI4247
g142
sI4248
g2378
sI4249
g1773
sI4250
g1774
sI4251
g682
sI4252
g300
sI4253
g77
sI4254
g4273
sI4255
g374
sI4256
g392
sI4257
g1802
sI4258
g1761
sI4259
g1807
sI4260
g1811
sI4261
g4891
sI4262
g489
sI4263
g1778
sI4264
g1828
sI4265
g560
sI4266
g594
sI4267
g1842
sI4268
g2245
sI4269
g698
sI4270
g1856
sI4271
g2054
sI4272
g3588
sI4273
g3812
sI4274
g1934
sI4275
g1874
sI4276
g1884
sI4277
g1885
sI4278
g1886
sI4279
g1887
sI4280
g1892
sI4281
g1893
sI4282
g1896
sI4283
g1902
sI4284
g1905
sI4285
g1906
sI4286
g1909
sI4287
g1910
sI4288
g1911
sI4289
g1088
sI4290
g1133
sI4291
g3548
sI4292
g2413
sI4293
g1165
sI4294
g1930
sI4295
g787
sI4296
g1939
sI4297
g1284
sI4298
g1312
sI4299
g1424
sI4300
g1947
sI4301
g3047
sI4302
g1960
sI4303
g1966
sI4304
g2941
sI4305
g1525
sI4306
g1979
sI4307
g1593
sI4308
g1992
sI4309
g1997
sI4310
g2013
sI4311
g2023
sI4312
g2024
sI4313
g2609
sI4314
g1868
sI4315
g1871
sI4316
g2039
sI4317
g1908
sI4318
g2046
sI4319
g2049
sI4320
g72
sI4321
g2057
sI4322
g2059
sI4323
g2062
sI4324
g2027
sI4325
g4201
sI4326
g4707
sI4327
g1935
sI4328
g2080
sI4329
g490
sI4330
g2097
sI4331
g2974
sI4332
g2288
sI4333
g2292
sI4334
g2115
sI4335
g2116
sI4336
g2384
sI4337
g2131
sI4338
g2132
sI4339
g2135
sI4340
g2153
sI4341
g2155
sI4342
g2157
sI4343
g1373
sI4344
g2612
sI4345
g2635
sI4346
g2650
sI4347
g2174
sI4348
g2692
sI4349
g2763
sI4350
g2192
sI4351
g2193
sI4352
g2830
sI4353
g1472
sI4354
g2206
sI4355
g2209
sI4356
g2907
sI4357
g2211
sI4358
g2921
sI4359
g2956
sI4360
g2371
sI4361
g3007
sI4362
g3015
sI4363
g2229
sI4364
g4395
sI4365
g2237
sI4366
g3085
sI4367
g3291
sI4368
g1674
sI4369
g2261
sI4370
g2264
sI4371
g3265
sI4372
g3795
sI4373
g2442
sI4374
g2280
sI4375
g1653
sI4376
g2283
sI4377
g3356
sI4378
g2289
sI4379
g2293
sI4380
g3414
sI4381
g3418
sI4382
g3429
sI4383
g3494
sI4384
g4129
sI4385
g2313
sI4386
g3556
sI4387
g3571
sI4388
g2327
sI4389
g2331
sI4390
g3650
sI4391
g2337
sI4392
g2339
sI4393
g2340
sI4394
g535
sI4395
g2924
sI4396
g2355
sI4397
g3826
sI4398
g2360
sI4399
g2361
sI4400
g3881
sI4401
g3907
sI4402
g2372
sI4403
g2374
sI4404
g3865
sI4405
g964
sI4406
g2538
sI4407
g4839
sI4408
g2086
sI4409
g1404
sI4410
g4124
sI4411
g2402
sI4412
g2017
sI4413
g2405
sI4414
g4174
sI4415
g4191
sI4416
g4195
sI4417
g2415
sI4418
g4234
sI4419
g2425
sI4420
g4701
sI4421
g2433
sI4422
g2444
sI4423
g2445
sI4424
g2450
sI4425
g2463
sI4426
g2476
sI4427
g4463
sI4428
g2479
sI4429
g2481
sI4430
g4655
sI4431
g4679
sI4432
g2492
sI4433
g2494
sI4434
g2497
sI4435
g4800
sI4436
g2507
sI4437
g2863
sI4438
g4874
sI4439
g2518
sI4440
g2878
sI4441
g2524
sI4442
g2525
sI4443
g2528
sI4444
g2537
sI4445
g2541
sI4446
g5026
sI4447
g2554
sI4448
g4232
sI4449
g2563
sI4450
g680
sI4451
g95
sI4452
g2575
sI4453
g126
sI4454
g1685
sI4455
g155
sI4456
g2586
sI4457
g2596
sI4458
g2597
sI4459
g2600
sI4460
g277
sI4461
g2606
sI4462
g320
sI4463
g2615
sI4464
g2626
sI4465
g2627
sI4466
g3067
sI4467
g470
sI4468
g499
sI4469
g2647
sI4470
g4774
sI4471
g584
sI4472
g588
sI4473
g2871
sI4474
g643
sI4475
g2663
sI4476
g1346
sI4477
g2666
sI4478
g2669
sI4479
g1501
sI4480
g2685
sI4481
g849
sI4482
g4726
sI4483
g880
sI4484
g2700
sI4485
g2707
sI4486
g2714
sI4487
g902
sI4488
g2721
sI4489
g2722
sI4490
g2724
sI4491
g2729
sI4492
g1950
sI4493
g1098
sI4494
g2738
sI4495
g3546
sI4496
g2746
sI4497
g1192
sI4498
g1197
sI4499
g4572
sI4500
g3479
sI4501
g2767
sI4502
g2770
sI4503
g2773
sI4504
g2780
sI4505
g2784
sI4506
g2788
sI4507
g2796
sI4508
g2800
sI4509
g2807
sI4510
g1578
sI4511
g2819
sI4512
g2829
sI4513
g1972
sI4514
g2844
sI4515
g2848
sI4516
g1986
sI4517
g2861
sI4518
g3447
sI4519
g3574
sI4520
g1971
sI4521
g2895
sI4522
g2040
sI4523
g471
sI4524
g2904
sI4525
g2110
sI4526
g3110
sI4527
g2926
sI4528
g2928
sI4529
g886
sI4530
g2299
sI4531
g3163
sI4532
g2952
sI4533
g2955
sI4534
g2961
sI4535
g2493
sI4536
g2508
sI4537
g2485
sI4538
g255
sI4539
g2988
sI4540
g3000
sI4541
g2659
sI4542
g2610
sI4543
g3011
sI4544
g1526
sI4545
g3034
sI4546
g3037
sI4547
g3411
sI4548
g2901
sI4549
g3040
sI4550
g2605
sI4551
g2927
sI4552
g3056
sI4553
g2999
sI4554
g3070
sI4555
g567
sI4556
g3992
sI4557
g457
sI4558
g3173
sI4559
g3199
sI4560
g3091
sI4561
g3259
sI4562
g1675
sI4563
g3297
sI4564
g1350
sI4565
g5066
sI4566
g3109
sI4567
g3113
sI4568
g3128
sI4569
g3129
sI4570
g3457
sI4571
g3133
sI4572
g3482
sI4573
g3503
sI4574
g4586
sI4575
g4381
sI4576
g3153
sI4577
g3166
sI4578
g3645
sI4579
g3172
sI4580
g3174
sI4581
g3175
sI4582
g3180
sI4583
g3187
sI4584
g3194
sI4585
g3814
sI4586
g3204
sI4587
g3208
sI4588
g3209
sI4589
g3913
sI4590
g3939
sI4591
g3216
sI4592
g3957
sI4593
g3220
sI4594
g5079
sI4595
g3224
sI4596
g3226
sI4597
g2695
sI4598
g3234
sI4599
g3237
sI4600
g3240
sI4601
g3244
sI4602
g3245
sI4603
g3246
sI4604
g1273
sI4605
g4533
sI4606
g3270
sI4607
g2424
sI4608
g2790
sI4609
g4313
sI4610
g3287
sI4611
g3289
sI4612
g3293
sI4613
g4376
sI4614
g3304
sI4615
g4439
sI4616
g3316
sI4617
g4484
sI4618
g3320
sI4619
g4566
sI4620
g4262
sI4621
g3331
sI4622
g3338
sI4623
g3344
sI4624
g1938
sI4625
g3353
sI4626
g4829
sI4627
g1737
sI4628
g3368
sI4629
g754
sI4630
g1063
sI4631
g2456
sI4632
g5030
sI4633
g3394
sI4634
g3396
sI4635
g3397
sI4636
g3400
sI4637
g3401
sI4638
g3402
sI4639
g5094
sI4640
g3404
sI4641
g3231
sI4642
g3278
sI4643
g4600
sI4644
g4853
sI4645
g1750
sI4646
g3426
sI4647
g183
sI4648
g3668
sI4649
g3434
sI4650
g3436
sI4651
g3441
sI4652
g3444
sI4653
g1220
sI4654
g3453
sI4655
g3456
sI4656
g3464
sI4657
g2394
sI4658
g3484
sI4659
g3493
sI4660
g3496
sI4661
g3502
sI4662
g4880
sI4663
g463
sI4664
g758
sI4665
g3573
sI4666
g788
sI4667
g4033
sI4668
g2545
sI4669
g1058
sI4670
g3549
sI4671
g934
sI4672
g1005
sI4673
g3562
sI4674
g1061
sI4675
g4462
sI4676
g1097
sI4677
g3583
sI4678
g3471
sI4679
g3594
sI4680
g3599
sI4681
g4824
sI4682
g3606
sI4683
g3610
sI4684
g5022
sI4685
g3612
sI4686
g1327
sI4687
g2021
sI4688
g3620
sI4689
g2149
sI4690
g3624
sI4691
g3627
sI4692
g3629
sI4693
g1112
sI4694
g1686
sI4695
g3655
sI4696
g3658
sI4697
g3659
sI4698
g3660
sI4699
g1576
sI4700
g3676
sI4701
g3684
sI4702
g842
sI4703
g3702
sI4704
g1872
sI4705
g3722
sI4706
g3728
sI4707
g3694
sI4708
g3734
sI4709
g3740
sI4710
g3742
sI4711
g2064
sI4712
g2697
sI4713
g3758
sI4714
g2154
sI4715
g3765
sI4716
g3778
sI4717
g3781
sI4718
g3782
sI4719
g3792
sI4720
g3793
sI4721
g3799
sI4722
g3529
sI4723
g2385
sI4724
g4198
sI4725
g3809
sI4726
g3816
sI4727
g2533
sI4728
g569
sI4729
g3821
sI4730
g3822
sI4731
g3825
sI4732
g3833
sI4733
g2523
sI4734
g3843
sI4735
g2579
sI4736
g1534
sI4737
g3851
sI4738
g3854
sI4739
g3858
sI4740
g2890
sI4741
g3866
sI4742
g4296
sI4743
g3081
sI4744
g659
sI4745
g63
sI4746
g3891
sI4747
g3892
sI4748
g3475
sI4749
g4477
sI4750
g3911
sI4751
g2801
sI4752
g3921
sI4753
g3019
sI4754
g4534
sI4755
g3927
sI4756
g3066
sI4757
g3936
sI4758
g3937
sI4759
g3104
sI4760
g3715
sI4761
g3132
sI4762
g4583
sI4763
g3221
sI4764
g302
sI4765
g3963
sI4766
g996
sI4767
g4202
sI4768
g3970
sI4769
g3975
sI4770
g3978
sI4771
g3340
sI4772
g3983
sI4773
g3984
sI4774
g3390
sI4775
g3990
sI4776
g2419
sI4777
g3993
sI4778
g91
sI4779
g4000
sI4780
g4001
sI4781
g4003
sI4782
g2005
sI4783
g4007
sI4784
g4010
sI4785
g4015
sI4786
g4016
sI4787
g227
sI4788
g4030
sI4789
g3656
sI4790
g4881
sI4791
g4590
sI4792
g3733
sI4793
g4056
sI4794
g4061
sI4795
g4063
sI4796
g3901
sI4797
g4071
sI4798
g4072
sI4799
g4963
sI4800
g4083
sI4801
g4089
sI4802
g985
sI4803
g4094
sI4804
g3458
sI4805
g4100
sI4806
g4166
sI4807
g4111
sI4808
g4114
sI4809
g4184
sI4810
g4119
sI4811
g3591
sI4812
g4305
sI4813
g4134
sI4814
g4138
sI4815
g4366
sI4816
g2069
sI4817
g4145
sI4818
g4158
sI4819
g4160
sI4820
g4169
sI4821
g4563
sI4822
g3831
sI4823
g4177
sI4824
g4179
sI4825
g4434
sI4826
g4185
sI4827
g4678
sI4828
g4196
sI4829
g4740
sI4830
g4744
sI4831
g4203
sI4832
g4767
sI4833
g4284
sI4834
g4206
sI4835
g4214
sI4836
g4297
sI4837
g4217
sI4838
g4219
sI4839
g4728
sI4840
g5003
sI4841
g5008
sI4842
g4259
sI4843
g4261
sI4844
g3391
sI4845
g1023
sI4846
g705
sI4847
g4289
sI4848
g3505
sI4849
g4316
sI4850
g1787
sI4851
g4322
sI4852
g2960
sI4853
g4337
sI4854
g4338
sI4855
g4346
sI4856
g4355
sI4857
g637
sI4858
g4364
sI4859
g3207
sI4860
g769
sI4861
g4370
sI4862
g4372
sI4863
g4375
sI4864
g4377
sI4865
g715
sI4866
g720
sI4867
g4386
sI4868
g4161
sI4869
g3057
sI4870
g854
sI4871
g4327
sI4872
g3150
sI4873
g4411
sI4874
g4416
sI4875
g4417
sI4876
g4420
sI4877
g2156
sI4878
g4427
sI4879
g4433
sI4880
g4027
sI4881
g4437
sI4882
g1053
sI4883
g4440
sI4884
g1118
sI4885
g4448
sI4886
g2422
sI4887
g1225
sI4888
g1094
sI4889
g4470
sI4890
g4310
sI4891
g1298
sI4892
g4475
sI4893
g4282
sI4894
g1347
sI4895
g1305
sI4896
g4490
sI4897
g4502
sI4898
g4503
sI4899
g4508
sI4900
g2077
sI4901
g1488
sI4902
g4519
sI4903
g4527
sI4904
g4530
sI4905
g4541
sI4906
g4544
sI4907
g4547
sI4908
g1710
sI4909
g4553
sI4910
g4554
sI4911
g4559
sI4912
g1794
sI4913
g2034
sI4914
g4569
sI4915
g4570
sI4916
g1890
sI4917
g1897
sI4918
g4579
sI4919
g4580
sI4920
g4584
sI4921
g4589
sI4922
g1374
sI4923
g2354
sI4924
g1009
sI4925
g4611
sI4926
g2098
sI4927
g4613
sI4928
g4615
sI4929
g4619
sI4930
g2151
sI4931
g4627
sI4932
g4630
sI4933
g4633
sI4934
g4636
sI4935
g4640
sI4936
g1354
sI4937
g4644
sI4938
g4646
sI4939
g4186
sI4940
g4665
sI4941
g1633
sI4942
g4667
sI4943
g2408
sI4944
g3051
sI4945
g5046
sI4946
g4681
sI4947
g4304
sI4948
g4684
sI4949
g4685
sI4950
g4254
sI4951
g4688
sI4952
g1167
sI4953
g4694
sI4954
g4695
sI4955
g4697
sI4956
g4702
sI4957
g2623
sI4958
g4710
sI4959
g4713
sI4960
g4714
sI4961
g2670
sI4962
g3138
sI4963
g2720
sI4964
g4730
sI4965
g4731
sI4966
g4733
sI4967
g4738
sI4968
g2766
sI4969
g1804
sI4970
g4748
sI4971
g942
sI4972
g4798
sI4973
g4752
sI4974
g3053
sI4975
g2053
sI4976
g2931
sI4977
g2008
sI4978
g4769
sI4979
g3256
sI4980
g343
sI4981
g1780
sI4982
g4781
sI4983
g5080
sI4984
g2251
sI4985
g3541
sI4986
g117
sI4987
g4809
sI4988
g4816
sI4989
g4820
sI4990
g1402
sI4991
g2694
sI4992
g4270
sI4993
g4831
sI4994
g3385
sI4995
g4838
sI4996
g4844
sI4997
g3474
sI4998
g1466
sI4999
g4855
sI5000
g4986
sI5001
g4858
sI5002
g3526
sI5003
g4764
sI5004
g4869
sI5005
g1967
sI5006
g1060
sI5007
g4888
sI5008
g4188
sI5009
g4904
sI5010
g4915
sI5011
g4916
sI5012
g4924
sI5013
g4927
sI5014
g2048
sI5015
g4931
sI5016
g4933
sI5017
g4937
sI5018
g1635
sI5019
g2019
sI5020
g4950
sI5021
g3446
sI5022
g4176
sI5023
g4956
sI5024
g4231
sI5025
g4959
sI5026
g4961
sI5027
g4997
sI5028
g2270
sI5029
g4981
sI5030
g4989
sI5031
g4990
sI5032
g4993
sI5033
g4998
sI5034
g3210
sI5035
g1588
sI5036
g3608
sI5037
g4920
sI5038
g5024
sI5039
g3791
sI5040
g5032
sI5041
g3169
sI5042
g5036
sI5043
g4473
sI5044
g1397
sI5045
g5043
sI5046
g5049
sI5047
g5053
sI5048
g5058
sI5049
g5061
sI5050
g5064
sI5051
g4902
sI5052
g1091
sI5053
g5068
sI5054
g4872
sI5055
g5075
sI5056
g5078
sI5057
g5081
sI5058
g4908
sI5059
g4913
sI5060
g4919
sI5061
g4952
sI5062
g812
sI5063
g4987
sI5064
g5101
sI5065
g5104
sI5066
g1099
sI5067
g2326
sI5068
g5067
sI5069
g5082
sI5070
g5115
sI5071
g5117
stp5122
.