((dp0
V\uff01
p1
I22
sV\u3002
p2
I20
sV\uff0c
p3
I21
sV\uff1f
p4
I23
sS'1'
p5
I11
sS'0'
p6
I10
sS'3'
p7
I13
sS'2'
p8
I12
sS'5'
p9
I15
sS'4'
p10
I14
sS'7'
p11
I17
sS'6'
p12
I16
sS'9'
p13
I19
sS'8'
p14
I18
sS'E'
p15
I0
sS'U'
p16
I1
sS'a'
p17
I2
sS'c'
p18
I2
sS'b'
p19
I2
sS'e'
p20
I3
sS'd'
p21
I3
sS'g'
p22
I4
sS'f'
p23
I3
sS'i'
p24
I4
sS'h'
p25
I4
sS'k'
p26
I5
sS'j'
p27
I5
sS'm'
p28
I6
sS'l'
p29
I5
sS'o'
p30
I6
sS'n'
p31
I6
sS'q'
p32
I7
sS'p'
p33
I7
sS's'
p34
I7
sS'r'
p35
I7
sS'u'
p36
I8
sS't'
p37
I8
sS'w'
p38
I9
sS'v'
p39
I8
sS'y'
p40
I9
sS'x'
p41
I9
sS'z'
p42
I9
s(dp43
(dp44
V\u8000
p45
I3
sV\u6302
p46
I1290
sV\u6000
p47
I3809
sV\u6d89
p48
I4
sV\u8c08
p49
I5
sV\u908b
p50
I1291
sV\u4f0a
p51
I6
sV\u968f
p52
I1292
sV\u8302
p53
I2560
sV\u5f95
p54
I1293
sV\u6297
p55
I1294
sV\u8116
p56
I3811
sV\u6599
p57
I3812
sV\u5785
p58
I1906
sV\u5146
p59
I4745
sV\u871a
p60
I3813
sV\u4e9f
p61
I7
sV\u6d1e
p62
I8
sV\u9020
p63
I1296
sV\u54a3
p64
I9
sV\u77a5
p65
I3815
sV\u7624
p66
I2563
sV\u9aa7
p67
I2564
sV\u64b0
p68
I4320
sV\u7f2a
p69
I10
sV\u622c
p70
I1297
sV\u86af
p71
I3817
sV\u6f5c
p72
I4022
sV\u7877
p73
I4253
sV\u6cb3
p74
I11
sV\u6b32
p75
I3818
sV\u4fb5
p76
I3819
sV\u4e34
p77
I12
sV\u72b7
p78
I13
sV\u7136
p79
I3820
sV\u75b9
p80
I2566
sV\u5438
p81
I14
sV\u573a
p82
I2567
sV\u5bbd
p83
I3823
sV\u5a3c
p84
I15
sV\u7ebf
p85
I16
sV\u6342
p86
I2568
sV\u53f2
p87
I4778
sV\u53cd
p88
I17
sV\u724c
p89
I18
sV\u96cf
p90
I19
sV\u620c
p91
I4451
sV\u59d1
p92
I20
sV\u9f39
p93
I4242
sV\u7b52
p94
I2569
sV\u5e54
p95
I1303
sV\u82d7
p96
I1304
sV\u5eb8
p97
I2979
sV\u87d1
p98
I3741
sV\u6458
p99
I3825
sV\u8bdd
p100
I3826
sV\u6edf
p101
I2571
sV\u8d5e
p102
I2572
sV\u51e1
p103
I1305
sV\u94e3
p104
I1306
sV\u5362
p105
I21
sV\u77e5
p106
I22
sV\u9664
p107
I23
sV\u5de9
p108
I1307
sV\u60eb
p109
I1308
sV\u5f6a
p110
I24
sV\u63ed
p111
I3827
sV\u626c
p112
I2576
sV\u9985
p113
I4986
sV\u70bc
p114
I4245
sV\u8870
p115
I1310
sV\u6cf3
p116
I1311
sV\u8e74
p117
I1312
sV\u5176
p118
I1313
sV\u95f9
p119
I25
sV\u9a7c
p120
I1314
sV\u5eff
p121
I26
sV\u6e14
p122
I4453
sV\u6101
p123
I2577
sV\u8403
p124
I3830
sV\u6382
p125
I3831
sV\u6684
p126
I1316
sV\u8986
p127
I27
sV\u96c5
p128
I3243
sV\u6c88
p129
I1317
sV\u8f8a
p130
I28
sV\u530d
p131
I3833
sV\u6e43
p132
I1714
sV\u776c
p133
I3400
sV\u9890
p134
I2578
sV\u89c2
p135
I4246
sV\u7f15
p136
I2579
sV\u5e94
p137
I29
sV\u6d45
p138
I4247
sV\u679a
p139
I2580
sV\u73ae
p140
I2174
sV\u6d9e
p141
I2581
sV\u5121
p142
I30
sV\u6ee4
p143
I2281
sV\u9047
p144
I3610
sV\u80c6
p145
I4203
sV\u5d29
p146
I31
sV\u9ca8
p147
I3836
sV\u5faa
p148
I3837
sV\u82ac
p149
I32
sV\u662f
p150
I2582
sV\u5a1c
p151
I4455
sV\u68b0
p152
I3839
sV\u8bb2
p153
I2583
sV\u6e9f
p154
I1295
sV\u7237
p155
I2584
sV\u51b6
p156
I33
sV\u9539
p157
I3842
sV\u54b8
p158
I2585
sV\u8d1e
p159
I3814
sV\u9abc
p160
I34
sV\u9e3f
p161
I1318
sV\u80c0
p162
I1319
sV\u6a47
p163
I1320
sV\u89c6
p164
I3843
sV\u4fca
p165
I1321
sV\u94a3
p166
I2562
sV\u5951
p167
I2586
sV\u78d0
p168
I2587
sV\u5bd2
p169
I1322
sV\u5f55
p170
I2588
sV\u9ed4
p171
I1323
sV\u7178
p172
I2777
sV\u8559
p173
I1324
sV\u64d8
p174
I1325
sV\u8fa3
p175
I3624
sV\u8dfb
p176
I3401
sV\u4e5f
p177
I1326
sV\u5624
p178
I3816
sV\u827a
p179
I4647
sV\u9765
p180
I1327
sV\u56e4
p181
I35
sV\u5a67
p182
I1328
sV\u79e6
p183
I3847
sV\u5d69
p184
I3848
sV\u5ce8
p185
I36
sV\u5fea
p186
I2592
sV\u636d
p187
I1330
sV\u62ec
p188
I37
sV\u666f
p189
I3849
sV\u65ee
p190
I2593
sV\u8bf2
p191
I1331
sV\u6ef4
p192
I38
sV\u6c28
p193
I3186
sV\u94f8
p194
I3851
sV\u987b
p195
I39
sV\u57fa
p196
I3852
sV\u5b7d
p197
I40
sV\u9e7f
p198
I41
sV\u5dfe
p199
I3853
sV\u4f2a
p200
I1910
sV\u6b87
p201
I2595
sV\u50e7
p202
I4229
sV\u6c89
p203
I42
sV\u918b
p204
I1332
sV\u4e0a
p205
I43
sV\u8fd1
p206
I3430
sV\u540e
p207
I44
sV\u7891
p208
I45
sV\u9910
p209
I46
sV\u6682
p210
I4033
sV\u5e95
p211
I1334
sV\u7f14
p212
I3855
sV\u6016
p213
I47
sV\u8499
p214
I48
sV\u6518
p215
I2597
sV\u552e
p216
I3187
sV\u8f9f
p217
I2598
sV\u7384
p218
I2122
sV\u90a1
p219
I49
sV\u75a3
p220
I1335
sV\u7830
p221
I1912
sV\u5ca9
p222
I2599
sV\u6ea5
p223
I4787
sV\u82ad
p224
I1336
sV\u5cb3
p225
I1913
sV\u67af
p226
I50
sV\u80dc
p227
I2984
sV\u88b1
p228
I1337
sV\u6930
p229
I1338
sV\u8db3
p230
I3856
sV\u4eb5
p231
I3857
sV\u4f34
p232
I51
sV\u73b7
p233
I52
sV\u9988
p234
I3405
sV\u7538
p235
I1339
sV\u79bb
p236
I53
sV\u7b3c
p237
I1341
sV\u7fbf
p238
I54
sV\u6e34
p239
I1298
sV\u80c1
p240
I2603
sV\u9175
p241
I3766
sV\u6846
p242
I2604
sV\u6cc9
p243
I1342
sV\u6d48
p244
I55
sV\u739f
p245
I2449
sV\u8e4a
p246
I1343
sV\u58d1
p247
I56
sV\u5173
p248
I3725
sV\u7ed5
p249
I1344
sV\u7f54
p250
I57
sV\u70ac
p251
I4538
sV\u69db
p252
I2606
sV\u665a
p253
I1345
sV\u8fdf
p254
I1346
sV\u6c5e
p255
I1347
sV\u90e1
p256
I3859
sV\u8c11
p257
I2123
sV\u75e3
p258
I2608
sV\u7262
p259
I1348
sV\u5764
p260
I2609
sV\u9897
p261
I3584
sV\u62ed
p262
I3861
sV\u67ef
p263
I1349
sV\u7a3c
p264
I1299
sV\u88f1
p265
I58
sV\u6df3
p266
I1350
sV\u4ef5
p267
I2611
sV\u8f74
p268
I1351
sV\u53f7
p269
I59
sV\u5076
p270
I1352
sV\u7578
p271
I2612
sV\u59fb
p272
I61
sV\u6d3e
p273
I4460
sV\u7afd
p274
I3864
sV\u5fff
p275
I62
sV\u8001
p276
I1354
sV\u8180
p277
I2614
sV\u8282
p278
I63
sV\u6784
p279
I1355
sV\u8b07
p280
I3865
sV\u6886
p281
I3866
sV\u6d88
p282
I1356
sV\u500d
p283
I3945
sV\u7a77
p284
I4180
sV\u520d
p285
I3867
sV\u538c
p286
I64
sV\u970f
p287
I3868
sV\u948e
p288
I65
sV\u5811
p289
I3869
sV\u5a92
p290
I2616
sV\u5e15
p291
I3871
sV\u7f94
p292
I1357
sV\u8317
p293
I66
sV\u8096
p294
I1358
sV\u891b
p295
I67
sV\u4fee
p296
I4252
sV\u4f1f
p297
I2618
sV\u8d39
p298
I4764
sV\u5021
p299
I68
sV\u71a0
p300
I69
sV\u9523
p301
I70
sV\u98a6
p302
I1360
sV\u6e1d
p303
I1520
sV\u612b
p304
I2619
sV\u7eaa
p305
I2620
sV\u63ac
p306
I3872
sV\u672f
p307
I2621
sV\u64ae
p308
I1361
sV\u829c
p309
I4164
sV\u8e35
p310
I3873
sV\u4f2f
p311
I4200
sV\u5439
p312
I1362
sV\u75b8
p313
I3874
sV\u7701
p314
I3438
sV\u7a3d
p315
I71
sV\u60cb
p316
I4462
sV\u7cbe
p317
I1363
sV\u7fc5
p318
I2248
sV\u81c0
p319
I1364
sV\u8543
p320
I2622
sV\u62c2
p321
I72
sV\u67c4
p322
I2623
sV\u6b47
p323
I1365
sV\u88c6
p324
I3876
sV\u6c49
p325
I3877
sV\u73cd
p326
I1300
sV\u514b
p327
I73
sV\u4eca
p328
I1366
sV\u524d
p329
I2625
sV\u53cc
p330
I3879
sV\u574f
p331
I74
sV\u524c
p332
I1301
sV\u5851
p333
I2626
sV\u7f79
p334
I1719
sV\u5ad2
p335
I1368
sV\u5e55
p336
I2627
sV\u7fd4
p337
I2628
sV\u80d6
p338
I75
sV\u6e4d
p339
I4980
sV\u4f5f
p340
I1369
sV\u6cde
p341
I3882
sV\u79d1
p342
I1302
sV\u9563
p343
I3883
sV\u5de8
p344
I77
sV\u7eea
p345
I3884
sV\u626d
p346
I1370
sV\u676f
p347
I3885
sV\u51a0
p348
I1359
sV\u8d73
p349
I78
sV\u5377
p350
I2629
sV\u99a8
p351
I4041
sV\u95f8
p352
I3886
sV\u56fa
p353
I3887
sV\u5bfc
p354
I1371
sV\u9f7f
p355
I79
sV\u8200
p356
I80
sV\u8102
p357
I2630
sV\u8404
p358
I81
sV\u8f89
p359
I3888
sV\u4e08
p360
I2631
sV\u518d
p361
I1372
sV\u500c
p362
I2632
sV\u948f
p363
I1373
sV\u970e
p364
I2633
sV\u8884
p365
I3129
sV\u9e93
p366
I1374
sV\u7802
p367
I2357
sV\u5c14
p368
I2634
sV\u6316
p369
I82
sV\u8c85
p370
I4255
sV\u90ae
p371
I3411
sV\u6c9f
p372
I1375
sV\u4f1e
p373
I1376
sV\u5220
p374
I3893
sV\u56a3
p375
I83
sV\u9122
p376
I3894
sV\u75a5
p377
I3895
sV\u78a7
p378
I1377
sV\u7b26
p379
I84
sV\u5bdd
p380
I1919
sV\u62ab
p381
I85
sV\u7206
p382
I2359
sV\u5fbd
p383
I3973
sV\u4eb3
p384
I1378
sV\u8eb2
p385
I2787
sV\u6db5
p386
I2636
sV\u6c34
p387
I1379
sV\u6708
p388
I4256
sV\u7638
p389
I1380
sV\u753a
p390
I3897
sV\u79bd
p391
I2638
sV\u8bef
p392
I3073
sV\u5cbf
p393
I1381
sV\u9f3e
p394
I86
sV\u83c1
p395
I2639
sV\u6240
p396
I87
sV\u65c5
p397
I1382
sV\u6444
p398
I88
sV\u6b46
p399
I2640
sV\u4e48
p400
I1383
sV\u52cb
p401
I2641
sV\u8d4a
p402
I1384
sV\u91cd
p403
I2643
sV\u704c
p404
I89
sV\u54cf
p405
I2644
sV\u574e
p406
I3899
sV\u7bd1
p407
I1386
sV\u5ed3
p408
I2645
sV\u6e0e
p409
I2360
sV\u6d3b
p410
I3413
sV\u6f5e
p411
I1387
sV\u5162
p412
I90
sV\u5464
p413
I2646
sV\u5b66
p414
I91
sV\u7fe9
p415
I92
sV\u9e3d
p416
I4044
sV\u81ed
p417
I93
sV\u606c
p418
I2647
sV\u8bf1
p419
I94
sV\u9012
p420
I2992
sV\u8df5
p421
I95
sV\u6c74
p422
I2648
sV\u70f7
p423
I1388
sV\u57f9
p424
I2649
sV\u9afb
p425
I2650
sV\u79fd
p426
I3901
sV\u987c
p427
I1389
sV\u8301
p428
I1390
sV\u6280
p429
I1391
sV\u7f6a
p430
I1309
sV\u8734
p431
I2913
sV\u6807
p432
I96
sV\u6b86
p433
I3902
sV\u6f09
p434
I2653
sV\u4e88
p435
I97
sV\u8d8a
p436
I98
sV\u740f
p437
I99
sV\u778e
p438
I3904
sV\u7b11
p439
I2654
sV\u9a90
p440
I2655
sV\u9992
p441
I100
sV\u5c94
p442
I101
sV\u8017
p443
I102
sV\u6396
p444
I2657
sV\u889c
p445
I3905
sV\u8c1f
p446
I103
sV\u8f9e
p447
I1393
sV\u5321
p448
I104
sV\u52a0
p449
I1394
sV\u51a2
p450
I3907
sV\u7525
p451
I1395
sV\u54a4
p452
I1396
sV\u814c
p453
I4557
sV\u5ba6
p454
I3908
sV\u5f29
p455
I105
sV\u7ea8
p456
I106
sV\u822b
p457
I1398
sV\u8b66
p458
I3294
sV\u8f91
p459
I4663
sV\u60ac
p460
I3909
sV\u6d35
p461
I107
sV\u9739
p462
I3911
sV\u7a3b
p463
I2659
sV\u8eba
p464
I3572
sV\u7c3f
p465
I2660
sV\u5e74
p466
I4467
sV\u951a
p467
I4523
sV\u6643
p468
I1399
sV\u61c2
p469
I108
sV\u6545
p470
I3914
sV\u84c4
p471
I1400
sV\u8bc6
p472
I3915
sV\u7709
p473
I3600
sV\u9176
p474
I3828
sV\u914d
p475
I109
sV\u60e7
p476
I3593
sV\u57ce
p477
I1401
sV\u9b51
p478
I110
sV\u75f9
p479
I3829
sV\u8272
p480
I4195
sV\u79d2
p481
I111
sV\u834f
p482
I3414
sV\u83d6
p483
I112
sV\u8759
p484
I1402
sV\u7ca5
p485
I4262
sV\u845b
p486
I4329
sV\u6c5f
p487
I113
sV\u8fde
p488
I114
sV\u5361
p489
I3918
sV\u72e0
p490
I1403
sV\u7663
p491
I115
sV\u7565
p492
I2664
sV\u94e4
p493
I2665
sV\u7f69
p494
I2666
sV\u6bfd
p495
I4468
sV\u626b
p496
I3921
sV\u816d
p497
I2667
sV\u60ec
p498
I116
sV\u87ee
p499
I1404
sV\u4e73
p500
I2668
sV\u8d75
p501
I2669
sV\u7eff
p502
I1315
sV\u5077
p503
I2670
sV\u53f6
p504
I3922
sV\u7779
p505
I1405
sV\u76f8
p506
I117
sV\u9a7b
p507
I118
sV\u95fa
p508
I1406
sV\u597d
p509
I119
sV\u5bab
p510
I2367
sV\u9c7f
p511
I120
sV\u5ffe
p512
I3923
sV\u8783
p513
I1407
sV\u6002
p514
I1408
sV\u6485
p515
I121
sV\u7080
p516
I1925
sV\u6e89
p517
I122
sV\u68ad
p518
I2996
sV\u738b
p519
I2673
sV\u8c0a
p520
I2674
sV\u508d
p521
I1410
sV\u5403
p522
I1926
sV\u758f
p523
I2675
sV\u560e
p524
I123
sV\u7a91
p525
I124
sV\u7812
p526
I1411
sV\u7c95
p527
I125
sV\u5d14
p528
I2677
sV\u6216
p529
I126
sV\u8718
p530
I1412
sV\u849c
p531
I4394
sV\u6d9f
p532
I1413
sV\u4e1e
p533
I1414
sV\u52a1
p534
I2679
sV\u62b1
p535
I2997
sV\u57a3
p536
I127
sV\u9022
p537
I3929
sV\u94a5
p538
I128
sV\u9524
p539
I1415
sV\u79a7
p540
I1416
sV\u7f28
p541
I2681
sV\u83ab
p542
I3931
sV\u7c2a
p543
I129
sV\u65af
p544
I130
sV\u6fb3
p545
I131
sV\u5510
p546
I3060
sV\u8d34
p547
I2682
sV\u51b7
p548
I1417
sV\u5236
p549
I2683
sV\u7738
p550
I1418
sV\u793c
p551
I1419
sV\u9e3e
p552
I132
sV\u8340
p553
I3934
sV\u8042
p554
I1420
sV\u64c5
p555
I1421
sV\u5eb9
p556
I4265
sV\u53cb
p557
I2685
sV\u714c
p558
I133
sV\u564e
p559
I3936
sV\u7b50
p560
I134
sV\u7852
p561
I2686
sV\u7cd5
p562
I1423
sV\u5a46
p563
I4555
sV\u66d9
p564
I135
sV\u64e2
p565
I4728
sV\u8bdb
p566
I1424
sV\u845a
p567
I2689
sV\u53bb
p568
I1727
sV\u8ddf
p569
I1425
sV\u4e5e
p570
I136
sV\u72e1
p571
I137
sV\u5360
p572
I2690
sV\u77e3
p573
I2691
sV\u9062
p574
I2692
sV\u54e5
p575
I1426
sV\u5564
p576
I2693
sV\u79e7
p577
I2694
sV\u7ee9
p578
I138
sV\u80ed
p579
I139
sV\u8c13
p580
I4471
sV\u65ef
p581
I1427
sV\u666e
p582
I140
sV\u6869
p583
I3416
sV\u6b92
p584
I4472
sV\u6cf5
p585
I3941
sV\u8d74
p586
I1428
sV\u96f9
p587
I141
sV\u5f15
p588
I3834
sV\u5bfb
p589
I142
sV\u763e
p590
I4266
sV\u997c
p591
I1429
sV\u6380
p592
I1430
sV\u95e8
p593
I2942
sV\u6405
p594
I2697
sV\u8584
p595
I2698
sV\u8e09
p596
I1431
sV\u4f88
p597
I143
sV\u900d
p598
I1433
sV\u518c
p599
I144
sV\u550f
p600
I1434
sV\u568e
p601
I2700
sV\u5a11
p602
I3948
sV\u7b90
p603
I1435
sV\u7f13
p604
I145
sV\u6041
p605
I3875
sV\u6296
p606
I2701
sV\u6619
p607
I1437
sV\u9cc5
p608
I3629
sV\u8df7
p609
I3790
sV\u699c
p610
I146
sV\u8d1f
p611
I147
sV\u5723
p612
I2702
sV\u90a2
p613
I1438
sV\u7425
p614
I1439
sV\u75a4
p615
I148
sV\u5927
p616
I2703
sV\u7aa6
p617
I2704
sV\u9e29
p618
I2705
sV\u5fa8
p619
I1440
sV\u832b
p620
I1441
sV\u7caa
p621
I2707
sV\u61ac
p622
I3951
sV\u652f
p623
I2708
sV\u66ae
p624
I1442
sV\u6a31
p625
I149
sV\u8bb0
p626
I150
sV\u6f33
p627
I2709
sV\u6c35
p628
I151
sV\u8db4
p629
I152
sV\u72b6
p630
I1443
sV\u5639
p631
I1444
sV\u76f9
p632
I3942
sV\u6bcb
p633
I4857
sV\u5ebe
p634
I153
sV\u6241
p635
I3952
sV\u83c0
p636
I1446
sV\u6743
p637
I1447
sV\u644a
p638
I3005
sV\u80a0
p639
I4474
sV\u8e49
p640
I154
sV\u8fc8
p641
I1448
sV\u6cca
p642
I155
sV\u904d
p643
I156
sV\u91cc
p644
I1449
sV\u754f
p645
I1450
sV\u76ce
p646
I157
sV\u5bd0
p647
I3954
sV\u5f53
p648
I158
sV\u53a2
p649
I3835
sV\u5c55
p650
I2712
sV\u7737
p651
I2788
sV\u62d6
p652
I3956
sV\u9e26
p653
I4102
sV\u6e4e
p654
I3632
sV\u9e44
p655
I4744
sV\u6ede
p656
I3957
sV\u7261
p657
I2713
sV\u53e0
p658
I159
sV\u7763
p659
I160
sV\u8de8
p660
I3269
sV\u55e4
p661
I161
sV\u751c
p662
I3771
sV\u9ae6
p663
I162
sV\u836b
p664
I163
sV\u5cea
p665
I2715
sV\u606d
p666
I1453
sV\u81ec
p667
I3958
sV\u86ee
p668
I1454
sV\u6a71
p669
I1455
sV\u8bf0
p670
I3959
sV\u4f73
p671
I2716
sV\u9177
p672
I164
sV\u66fe
p673
I3662
sV\u94fa
p674
I1456
sV\u987d
p675
I2718
sV\u9785
p676
I4450
sV\u7efe
p677
I2719
sV\u75ea
p678
I4251
sV\u6400
p679
I3961
sV\u8083
p680
I1457
sV\u8702
p681
I2720
sV\u8385
p682
I3962
sV\u8e87
p683
I1458
sV\u5600
p684
I3419
sV\u6808
p685
I3963
sV\u748b
p686
I2721
sV\u978d
p687
I3965
sV\u5d58
p688
I3553
sV\u62ac
p689
I3838
sV\u9893
p690
I1459
sV\u7b95
p691
I165
sV\u7a14
p692
I3967
sV\u6697
p693
I1461
sV\u6f58
p694
I4269
sV\u9f0e
p695
I2948
sV\u8018
p696
I1462
sV\u6c9b
p697
I1463
sV\u631a
p698
I166
sV\u4f9d
p699
I2722
sV\u4e1c
p700
I3968
sV\u8fce
p701
I4846
sV\u75a1
p702
I3969
sV\u5420
p703
I3970
sV\u50a3
p704
I167
sV\u53a5
p705
I2724
sV\u5224
p706
I3971
sV\u5ea7
p707
I168
sV\u59a9
p708
I2725
sV\u67ad
p709
I2726
sV\u82af
p710
I3972
sV\u715c
p711
I4865
sV\u94c1
p712
I3396
sV\u6c30
p713
I1465
sV\u68b3
p714
I169
sV\u6bb5
p715
I2727
sV\u55df
p716
I4866
sV\u56b7
p717
I1466
sV\u9536
p718
I170
sV\u71b9
p719
I2728
sV\u9038
p720
I2729
sV\u533a
p721
I2730
sV\u7fbd
p722
I2731
sV\u5e3c
p723
I171
sV\u7abf
p724
I172
sV\u6eb4
p725
I3840
sV\u65c1
p726
I1467
sV\u5267
p727
I1632
sV\u80c3
p728
I173
sV\u6742
p729
I2732
sV\u83c5
p730
I2733
sV\u6237
p731
I3211
sV\u4ec7
p732
I2734
sV\u6d46
p733
I2735
sV\u89c9
p734
I2736
sV\u6848
p735
I174
sV\u77cd
p736
I1468
sV\u764c
p737
I175
sV\u714e
p738
I2737
sV\u5c50
p739
I1470
sV\u98d3
p740
I176
sV\u8862
p741
I3636
sV\u6556
p742
I1471
sV\u8058
p743
I177
sV\u6cdb
p744
I2738
sV\u7f62
p745
I1771
sV\u4fdd
p746
I1472
sV\u82f7
p747
I3198
sV\u695e
p748
I1473
sV\u55e1
p749
I1474
sV\u62a5
p750
I4629
sV\u7762
p751
I1475
sV\u53e5
p752
I1476
sV\u7ee7
p753
I2741
sV\u6e10
p754
I4664
sV\u79e9
p755
I178
sV\u5b6a
p756
I179
sV\u866c
p757
I1477
sV\u62ef
p758
I1478
sV\u816e
p759
I3979
sV\u6df1
p760
I3980
sV\u6c70
p761
I2743
sV\u88f3
p762
I2744
sV\u8f72
p763
I3981
sV\u8bf5
p764
I180
sV\u8350
p765
I4860
sV\u96f7
p766
I2745
sV\u88e4
p767
I3764
sV\u51f9
p768
I2746
sV\u7078
p769
I2747
sV\u5cfb
p770
I181
sV\u5ffd
p771
I2748
sV\u731d
p772
I2268
sV\u7aff
p773
I1480
sV\u8003
p774
I3984
sV\u8782
p775
I182
sV\u8305
p776
I1481
sV\u6284
p777
I1482
sV\u4e07
p778
I1483
sV\u6b8a
p779
I3985
sV\u970d
p780
I1484
sV\u5c90
p781
I183
sV\u53c2
p782
I1933
sV\u5669
p783
I4295
sV\u5218
p784
I4666
sV\u9984
p785
I3792
sV\u8098
p786
I3986
sV\u8c1b
p787
I184
sV\u80af
p788
I4063
sV\u6e9c
p789
I185
sV\u6a1f
p790
I3988
sV\u9521
p791
I2750
sV\u94a0
p792
I3989
sV\u57a2
p793
I3990
sV\u7325
p794
I1485
sV\u81ba
p795
I3447
sV\u5e27
p796
I2751
sV\u7da6
p797
I2752
sV\u5929
p798
I186
sV\u58a8
p799
I1486
sV\u59c6
p800
I1935
sV\u672d
p801
I187
sV\u97f3
p802
I3637
sV\u8012
p803
I3619
sV\u6d31
p804
I188
sV\u789f
p805
I2149
sV\u67da
p806
I3845
sV\u90b8
p807
I189
sV\u975b
p808
I5062
sV\u73ba
p809
I1487
sV\u804b
p810
I3215
sV\u7a3f
p811
I2753
sV\u59be
p812
I190
sV\u64c0
p813
I2754
sV\u6043
p814
I1489
sV\u6345
p815
I3994
sV\u62c4
p816
I2756
sV\u8e47
p817
I2757
sV\u6dc6
p818
I191
sV\u5a76
p819
I1737
sV\u574d
p820
I2758
sV\u96cc
p821
I1490
sV\u71ce
p822
I192
sV\u5fd2
p823
I1491
sV\u5b55
p824
I2759
sV\u864f
p825
I3217
sV\u6657
p826
I193
sV\u6f78
p827
I3639
sV\u60d8
p828
I1492
sV\u6c5b
p829
I194
sV\u4f5d
p830
I4000
sV\u5561
p831
I4001
sV\u94e0
p832
I2760
sV\u9063
p833
I4002
sV\u77e2
p834
I4003
sV\u954c
p835
I4107
sV\u52e4
p836
I195
sV\u5de6
p837
I2761
sV\u901a
p838
I4702
sV\u78e8
p839
I1493
sV\u846b
p840
I196
sV\u7bea
p841
I4004
sV\u676d
p842
I1494
sV\u826f
p843
I197
sV\u6cf0
p844
I198
sV\u8bd2
p845
I4481
sV\u9677
p846
I199
sV\u5179
p847
I200
sV\u7f55
p848
I3844
sV\u7c7b
p849
I4007
sV\u867e
p850
I4870
sV\u7efc
p851
I201
sV\u9a7f
p852
I202
sV\u7ed4
p853
I2589
sV\u6500
p854
I4009
sV\u6602
p855
I1495
sV\u8304
p856
I203
sV\u7b80
p857
I2379
sV\u5f57
p858
I2473
sV\u558b
p859
I4010
sV\u6a0a
p860
I1496
sV\u968d
p861
I4011
sV\u938f
p862
I1497
sV\u742c
p863
I2152
sV\u7c91
p864
I204
sV\u6559
p865
I2590
sV\u5993
p866
I4013
sV\u7a95
p867
I205
sV\u7b14
p868
I4014
sV\u6797
p869
I1499
sV\u6d9b
p870
I1500
sV\u621a
p871
I206
sV\u5520
p872
I4015
sV\u7622
p873
I207
sV\u7fa7
p874
I1501
sV\u58a9
p875
I2765
sV\u5b5d
p876
I4483
sV\u672c
p877
I1502
sV\u6cb1
p878
I2766
sV\u8d30
p879
I2767
sV\u6587
p880
I3147
sV\u4e32
p881
I2768
sV\u6ed3
p882
I4529
sV\u7436
p883
I4017
sV\u90b9
p884
I1503
sV\u523a
p885
I2770
sV\u9ebd
p886
I1504
sV\u5f3c
p887
I208
sV\u5bbf
p888
I1505
sV\u783e
p889
I4018
sV\u81c3
p890
I209
sV\u62c5
p891
I1506
sV\u8fc7
p892
I210
sV\u8c46
p893
I1507
sV\u68c9
p894
I1508
sV\u96cd
p895
I2772
sV\u73cf
p896
I4019
sV\u504e
p897
I4020
sV\u6e7f
p898
I4487
sV\u59d3
p899
I2773
sV\u7b54
p900
I211
sV\u7238
p901
I1539
sV\u8e0a
p902
I2596
sV\u7765
p903
I2591
sV\u8ddb
p904
I1510
sV\u4edd
p905
I1511
sV\u4f5c
p906
I2774
sV\u8bdf
p907
I1512
sV\u94e1
p908
I4023
sV\u5662
p909
I212
sV\u5364
p910
I2776
sV\u5fe7
p911
I4024
sV\u9968
p912
I213
sV\u5a6a
p913
I214
sV\u86ed
p914
I215
sV\u6cf1
p915
I4026
sV\u8d70
p916
I1513
sV\u8e72
p917
I4027
sV\u7476
p918
I216
sV\u70f9
p919
I4028
sV\u9178
p920
I1514
sV\u727a
p921
I217
sV\u7efd
p922
I4030
sV\u5f7c
p923
I4031
sV\u5bff
p924
I218
sV\u587e
p925
I1515
sV\u6401
p926
I2778
sV\u903c
p927
I2956
sV\u8682
p928
I219
sV\u8205
p929
I1516
sV\u9640
p930
I4671
sV\u6809
p931
I2779
sV\u6988
p932
I1517
sV\u950b
p933
I4034
sV\u8a8a
p934
I220
sV\u778c
p935
I1518
sV\u708e
p936
I4035
sV\u5c11
p937
I4036
sV\u5a9a
p938
I4971
sV\u9e92
p939
I221
sV\u7b94
p940
I1519
sV\u8717
p941
I222
sV\u8019
p942
I2780
sV\u8198
p943
I4038
sV\u6d1b
p944
I4039
sV\u629a
p945
I2781
sV\u4e1d
p946
I223
sV\u6f9c
p947
I224
sV\u5f27
p948
I2783
sV\u59a8
p949
I1521
sV\u852b
p950
I1522
sV\u662d
p951
I225
sV\u832f
p952
I1523
sV\u80ae
p953
I2786
sV\u8c31
p954
I4042
sV\u4eb2
p955
I226
sV\u6a35
p956
I227
sV\u8bb4
p957
I228
sV\u53ca
p958
I2433
sV\u9b54
p959
I4021
sV\u81ca
p960
I4405
sV\u5e3d
p961
I1524
sV\u78be
p962
I1525
sV\u6441
p963
I4045
sV\u63c4
p964
I2789
sV\u6f47
p965
I1526
sV\u6849
p966
I4046
sV\u89c8
p967
I1527
sV\u51f6
p968
I3850
sV\u964d
p969
I229
sV\u534f
p970
I230
sV\u90ce
p971
I4047
sV\u5c51
p972
I2790
sV\u7ed2
p973
I231
sV\u5a55
p974
I2791
sV\u8757
p975
I4048
sV\u6059
p976
I2792
sV\u8d5b
p977
I4049
sV\u62da
p978
I4050
sV\u4e5d
p979
I4051
sV\u8fdc
p980
I2793
sV\u5409
p981
I4802
sV\u6fd1
p982
I2157
sV\u9163
p983
I4052
sV\u56e2
p984
I2794
sV\u5265
p985
I4053
sV\u53e4
p986
I232
sV\u5ce6
p987
I2795
sV\u59e8
p988
I233
sV\u67ec
p989
I234
sV\u836f
p990
I235
sV\u60ee
p991
I2796
sV\u62bc
p992
I4766
sV\u4ef2
p993
I4054
sV\u5e7f
p994
I2594
sV\u5777
p995
I2797
sV\u94f6
p996
I1528
sV\u51f8
p997
I1529
sV\u52fa
p998
I4056
sV\u5e7d
p999
I236
sV\u7ffc
p1000
I237
sV\u8854
p1001
I4672
sV\u6781
p1002
I238
sV\u6600
p1003
I4057
sV\u8004
p1004
I239
sV\u89ce
p1005
I4924
sV\u6f06
p1006
I1530
sV\u6b89
p1007
I240
sV\u968b
p1008
I1531
sV\u540c
p1009
I2800
sV\u730e
p1010
I1532
sV\u5e10
p1011
I2801
sV\u7814
p1012
I4058
sV\u6258
p1013
I4070
sV\u6218
p1014
I2802
sV\u4e9b
p1015
I241
sV\u611a
p1016
I242
sV\u6d9d
p1017
I4060
sV\u8c1c
p1018
I1533
sV\u60bc
p1019
I4845
sV\u5704
p1020
I3228
sV\u7620
p1021
I2803
sV\u52a3
p1022
I243
sV\u5522
p1023
I1534
sV\u51a5
p1024
I2804
sV\u5f26
p1025
I1535
sV\u7ba9
p1026
I4062
sV\u592a
p1027
I1536
sV\u65ad
p1028
I2805
sV\u642c
p1029
I1537
sV\u60af
p1030
I244
sV\u8fb1
p1031
I1538
sV\u4e30
p1032
I245
sV\u8d32
p1033
I246
sV\u7736
p1034
I4065
sV\u5238
p1035
I247
sV\u9ebb
p1036
I4066
sV\u5c3c
p1037
I248
sV\u9f13
p1038
I3949
sV\u67c1
p1039
I1540
sV\u6e0a
p1040
I1333
sV\u4f46
p1041
I4067
sV\u8bc9
p1042
I2806
sV\u8a48
p1043
I4068
sV\u75cd
p1044
I1541
sV\u62e3
p1045
I3435
sV\u50cf
p1046
I2807
sV\u534e
p1047
I4069
sV\u5fd1
p1048
I249
sV\u8e39
p1049
I4882
sV\u9ad3
p1050
I250
sV\u5854
p1051
I1542
sV\u6756
p1052
I1543
sV\u8258
p1053
I251
sV\u732e
p1054
I4669
sV\u8ddd
p1055
I4071
sV\u8f76
p1056
I5006
sV\u6064
p1057
I4674
sV\u9891
p1058
I3854
sV\u8c26
p1059
I4630
sV\u71e5
p1060
I252
sV\u5f66
p1061
I253
sV\u996a
p1062
I2808
sV\u65ed
p1063
I4072
sV\u846c
p1064
I1544
sV\u60ef
p1065
I1545
sV\u636e
p1066
I254
sV\u4ff1
p1067
I2810
sV\u4e70
p1068
I4073
sV\u5386
p1069
I3599
sV\u74f7
p1070
I1546
sV\u9776
p1071
I4074
sV\u53f9
p1072
I2811
sV\u7efb
p1073
I1547
sV\u9c7c
p1074
I1548
sV\u7b7e
p1075
I255
sV\u8680
p1076
I2812
sV\u6084
p1077
I1549
sV\u8f86
p1078
I256
sV\u548c
p1079
I257
sV\u500f
p1080
I1550
sV\u5f11
p1081
I4076
sV\u5e90
p1082
I258
sV\u5a13
p1083
I1551
sV\u88c2
p1084
I4289
sV\u5915
p1085
I4077
sV\u80ef
p1086
I2809
sV\u77b0
p1087
I5052
sV\u6298
p1088
I259
sV\u4e1b
p1089
I2813
sV\u95f4
p1090
I4888
sV\u8d1d
p1091
I2814
sV\u6dc4
p1092
I3019
sV\u7ff1
p1093
I4676
sV\u961a
p1094
I4493
sV\u66e6
p1095
I5066
sV\u5c27
p1096
I2815
sV\u9e70
p1097
I2167
sV\u9aa8
p1098
I4079
sV\u59aa
p1099
I4080
sV\u64ac
p1100
I4081
sV\u602f
p1101
I2816
sV\u63ae
p1102
I1552
sV\u6f31
p1103
I260
sV\u6db2
p1104
I1553
sV\u9f9f
p1105
I3234
sV\u5339
p1106
I1554
sV\u72b8
p1107
I4082
sV\u7b49
p1108
I4693
sV\u91ba
p1109
I2817
sV\u5d3d
p1110
I1555
sV\u7cbc
p1111
I4083
sV\u5bbe
p1112
I261
sV\u86c0
p1113
I1556
sV\u94ca
p1114
I4884
sV\u80c4
p1115
I1557
sV\u6c47
p1116
I1558
sV\u6b49
p1117
I4084
sV\u964b
p1118
I2818
sV\u89ca
p1119
I4085
sV\u954d
p1120
I262
sV\u54cc
p1121
I4086
sV\u504f
p1122
I263
sV\u7f51
p1123
I4087
sV\u9955
p1124
I264
sV\u8d4f
p1125
I3652
sV\u8457
p1126
I4088
sV\u62d8
p1127
I1560
sV\u6e5b
p1128
I265
sV\u9ece
p1129
I4290
sV\u8d5d
p1130
I1561
sV\u8bde
p1131
I266
sV\u9761
p1132
I1562
sV\u56e0
p1133
I267
sV\u75e2
p1134
I4090
sV\u9165
p1135
I1563
sV\u70e4
p1136
I1564
sV\u63d0
p1137
I3653
sV\u5b69
p1138
I4092
sV\u866b
p1139
I268
sV\u84ec
p1140
I4093
sV\u606f
p1141
I4094
sV\u8f71
p1142
I2822
sV\u4ef0
p1143
I1565
sV\u88f4
p1144
I4095
sV\u5477
p1145
I2823
sV\u97f6
p1146
I1566
sV\u72f8
p1147
I269
sV\u5e7b
p1148
I2825
sV\u9075
p1149
I3805
sV\u987f
p1150
I270
sV\u75d4
p1151
I3024
sV\u8681
p1152
I4097
sV\u8700
p1153
I271
sV\u6402
p1154
I1567
sV\u8a89
p1155
I4099
sV\u978b
p1156
I1568
sV\u9f88
p1157
I3332
sV\u950c
p1158
I272
sV\u718f
p1159
I2826
sV\u520e
p1160
I273
sV\u4e59
p1161
I4293
sV\u5b93
p1162
I4101
sV\u6bcf
p1163
I4952
sV\u5914
p1164
I2827
sV\u6597
p1165
I1569
sV\u7fd8
p1166
I2393
sV\u8299
p1167
I274
sV\u6e58
p1168
I4228
sV\u4f9b
p1169
I275
sV\u7720
p1170
I2829
sV\u7422
p1171
I276
sV\u50a5
p1172
I2830
sV\u5e26
p1173
I1570
sV\u7b28
p1174
I2831
sV\u67ab
p1175
I277
sV\u582a
p1176
I1571
sV\u64ad
p1177
I2832
sV\u852c
p1178
I2833
sV\u622e
p1179
I4103
sV\u4f30
p1180
I278
sV\u62dc
p1181
I1631
sV\u8c32
p1182
I279
sV\u68b5
p1183
I2834
sV\u8934
p1184
I2835
sV\u55b7
p1185
I1572
sV\u9636
p1186
I280
sV\u72b9
p1187
I2837
sV\u5eb5
p1188
I4497
sV\u503a
p1189
I2838
sV\u7cbd
p1190
I2839
sV\u6740
p1191
I281
sV\u60c5
p1192
I1573
sV\u83b7
p1193
I4498
sV\u6dc7
p1194
I4106
sV\u57cb
p1195
I2840
sV\u54cd
p1196
I282
sV\u754c
p1197
I283
sV\u91cf
p1198
I284
sV\u7ed1
p1199
I1574
sV\u7f50
p1200
I285
sV\u5bd3
p1201
I2843
sV\u58d5
p1202
I286
sV\u5954
p1203
I1576
sV\u65d7
p1204
I2845
sV\u6656
p1205
I1577
sV\u62d9
p1206
I287
sV\u8fdb
p1207
I1578
sV\u805a
p1208
I2846
sV\u59bb
p1209
I1340
sV\u69df
p1210
I2847
sV\u8de4
p1211
I3659
sV\u56e1
p1212
I1579
sV\u9760
p1213
I288
sV\u768b
p1214
I2799
sV\u5462
p1215
I289
sV\u5496
p1216
I4653
sV\u7164
p1217
I4112
sV\u5de7
p1218
I4113
sV\u9e66
p1219
I2849
sV\u5ae9
p1220
I1580
sV\u62e6
p1221
I4887
sV\u656c
p1222
I2850
sV\u626e
p1223
I290
sV\u8f70
p1224
I1581
sV\u6c72
p1225
I291
sV\u749e
p1226
I3567
sV\u55f7
p1227
I292
sV\u5676
p1228
I1582
sV\u545b
p1229
I2435
sV\u5378
p1230
I4118
sV\u5ffb
p1231
I293
sV\u5c3e
p1232
I2602
sV\u59ff
p1233
I294
sV\u9a7e
p1234
I4119
sV\u90c1
p1235
I3242
sV\u8303
p1236
I4120
sV\u8482
p1237
I295
sV\u8005
p1238
I1584
sV\u4e86
p1239
I2853
sV\u770b
p1240
I296
sV\u540d
p1241
I4123
sV\u9aa0
p1242
I4238
sV\u5f90
p1243
I297
sV\u9b13
p1244
I4124
sV\u7c92
p1245
I4125
sV\u5815
p1246
I4126
sV\u8517
p1247
I298
sV\u6696
p1248
I2854
sV\u6398
p1249
I299
sV\u809a
p1250
I1585
sV\u77a0
p1251
I300
sV\u5323
p1252
I2856
sV\u94a2
p1253
I1587
sV\u51a4
p1254
I1588
sV\u5d27
p1255
I2857
sV\u9ea6
p1256
I1589
sV\u5a29
p1257
I301
sV\u672b
p1258
I2859
sV\u642d
p1259
I302
sV\u5773
p1260
I3661
sV\u812f
p1261
I1590
sV\u5c9c
p1262
I2173
sV\u8e31
p1263
I4131
sV\u8fb0
p1264
I303
sV\u69b4
p1265
I4132
sV\u9537
p1266
I1591
sV\u96b6
p1267
I2862
sV\u7239
p1268
I304
sV\u6868
p1269
I4604
sV\u9f3b
p1270
I1593
sV\u90ba
p1271
I2863
sV\u5c3d
p1272
I1594
sV\u51cb
p1273
I2605
sV\u5abe
p1274
I305
sV\u6641
p1275
I4133
sV\u87c0
p1276
I1595
sV\u8343
p1277
I2864
sV\u64c2
p1278
I306
sg15
I0
sV\u7977
p1279
I4297
sV\u6d47
p1280
I1596
sV\u4ec6
p1281
I1597
sV\u8bc8
p1282
I1598
sV\u9e51
p1283
I307
sV\u5fd0
p1284
I4134
sV\u5cd2
p1285
I1599
sV\u7855
p1286
I4135
sV\u59d4
p1287
I4136
sV\u5ff8
p1288
I1751
sV\u83d8
p1289
I2865
sV\u4f5b
p1290
I1600
sV\u80da
p1291
I308
sV\u6c5d
p1292
I2866
sV\u637b
p1293
I4891
sV\u900f
p1294
I4075
sV\u9661
p1295
I1601
sV\u57e0
p1296
I309
sV\u94e2
p1297
I310
sV\u9065
p1298
I1602
sV\u51e4
p1299
I311
sV\u8f8d
p1300
I4895
sV\u5be8
p1301
I312
sV\u846d
p1302
I2867
sV\u65ec
p1303
I313
sV\u62ee
p1304
I2868
sV\u4e71
p1305
I314
sV\u8ff0
p1306
I4141
sV\u757f
p1307
I4298
sV\u5577
p1308
I2869
sV\u96f6
p1309
I1603
sV\u7279
p1310
I1604
sV\u53f8
p1311
I1605
sV\u5f7b
p1312
I2870
sV\u86fe
p1313
I2400
sV\u7c7d
p1314
I1606
sV\u997f
p1315
I315
sV\u8981
p1316
I4142
sV\u6800
p1317
I4143
sV\u6c83
p1318
I2871
sV\u82ab
p1319
I3896
sV\u8f85
p1320
I4144
sV\u8106
p1321
I2872
sV\u952d
p1322
I4686
sV\u7b8d
p1323
I316
sV\u70b9
p1324
I2769
sV\u5e8f
p1325
I4145
sV\u5d0e
p1326
I317
sV\u9010
p1327
I318
sV\u9493
p1328
I1607
sV\u9614
p1329
I319
sV\u809b
p1330
I2873
sV\u4f1a
p1331
I1608
sV\u821c
p1332
I1609
sV\u5ad4
p1333
I3998
sV\u865a
p1334
I2607
sV\u7126
p1335
I320
sV\u7428
p1336
I2874
sV\u88ab
p1337
I4147
sV\u8bad
p1338
I1610
sV\u6eaf
p1339
I321
sV\u8d2e
p1340
I322
sV\u4faa
p1341
I4476
sV\u9189
p1342
I4894
sV\u6332
p1343
I4150
sV\u9ab7
p1344
I4151
sV\u5b70
p1345
I4564
sV\u5c38
p1346
I323
sV\u50bb
p1347
I1612
sV\u5f3a
p1348
I2875
sV\u9c81
p1349
I4936
sV\u76bf
p1350
I324
sV\u553e
p1351
I2876
sV\u89c1
p1352
I2877
sV\u6840
p1353
I325
sV\u8fc5
p1354
I2878
sV\u6e44
p1355
I326
sV\u82c7
p1356
I327
sV\u8146
p1357
I1613
sV\u85c9
p1358
I2879
sV\u6448
p1359
I328
sV\u78cb
p1360
I4157
sV\u55e3
p1361
I3860
sV\u9ecf
p1362
I329
sV\u51d1
p1363
I330
sV\u9050
p1364
I4159
sV\u904f
p1365
I2819
sV\u7352
p1366
I2881
sV\u5654
p1367
I1614
sV\u675c
p1368
I4343
sV\u9531
p1369
I4922
sV\u6dd9
p1370
I331
sV\u4f5a
p1371
I332
sV\u86df
p1372
I1615
sV\u655e
p1373
I1616
sV\u5b62
p1374
I333
sV\u9e64
p1375
I334
sV\u7166
p1376
I1617
sV\u95e9
p1377
I4161
sV\u5468
p1378
I2882
sV\u6e8f
p1379
I3499
sV\u576a
p1380
I335
sV\u8bed
p1381
I336
sV\u6d6e
p1382
I337
sV\u6070
p1383
I2883
sV\u8247
p1384
I2895
sV\u6674
p1385
I2884
sV\u5976
p1386
I1618
sV\u50fb
p1387
I338
sV\u53fd
p1388
I2885
sV\u56ff
p1389
I339
sV\u6901
p1390
I2886
sV\u8c03
p1391
I4163
sV\u7686
p1392
I5044
sV\u9a8c
p1393
I2887
sV\u5999
p1394
I3666
sV\u5413
p1395
I1619
sV\u9694
p1396
I2888
sV\u759d
p1397
I4990
sV\u6d19
p1398
I1620
sV\u6273
p1399
I4409
sV\u631d
p1400
I1621
sV\u949b
p1401
I3667
sV\u661f
p1402
I4165
sV\u68f1
p1403
I3862
sV\u5ba2
p1404
I4167
sV\u5f25
p1405
I340
sV\u7ea4
p1406
I341
sV\u7529
p1407
I1623
sV\u74a8
p1408
I342
sV\u77aa
p1409
I2889
sV\u8df3
p1410
I2610
sV\u8e2f
p1411
I1625
sV\u6dae
p1412
I1626
sV\u8131
p1413
I4170
sV\u996d
p1414
I3615
sV\u83b2
p1415
I2891
sV\u6735
p1416
I343
sV\u729f
p1417
I2408
sV\u7a37
p1418
I2892
sV\u56fe
p1419
I4299
sV\u9cb8
p1420
I344
sV\u903b
p1421
I1627
sV\u53e3
p1422
I4111
sV\u963f
p1423
I1628
sV\u75be
p1424
I1629
sV\u8941
p1425
I345
sV\u68c0
p1426
I2894
sV\u90dc
p1427
I3614
sV\u6bc2
p1428
I346
sV\u4ec4
p1429
I4174
sV\u6247
p1430
I1630
sV\u81c6
p1431
I4175
sV\u8549
p1432
I347
sV\u7076
p1433
I60
sV\u9b4d
p1434
I348
sV\u5acc
p1435
I4176
sV\u9e4f
p1436
I2896
sV\u5151
p1437
I2897
sV\u5453
p1438
I349
sV\u704f
p1439
I1559
sV\u5578
p1440
I3863
sV\u6d59
p1441
I2899
sV\u4fda
p1442
I2900
sV\u79fb
p1443
I1353
sV\u665f
p1444
I350
sV\u7267
p1445
I351
sV\u8043
p1446
I2755
sV\u54e8
p1447
I352
sV\u886b
p1448
I353
sV\u97ea
p1449
I354
sV\u6dee
p1450
I2902
sV\u8171
p1451
I2903
sV\u60f0
p1452
I355
sV\u8473
p1453
I356
sV\u83f2
p1454
I1633
sV\u6775
p1455
I1634
sV\u66f4
p1456
I357
sV\u9a77
p1457
I358
sV\u5955
p1458
I2820
sV\u507b
p1459
I2905
sV\u72fc
p1460
I359
sV\u8c4c
p1461
I4998
sV\u95fe
p1462
I1635
sV\u6881
p1463
I360
sV\u6001
p1464
I2613
sV\u532a
p1465
I1758
sV\u6e85
p1466
I361
sV\u54a6
p1467
I4353
sV\u6387
p1468
I2906
sV\u6006
p1469
I1636
sV\u998b
p1470
I1637
sV\u660a
p1471
I1638
sV\u7a8d
p1472
I362
sV\u9091
p1473
I4183
sV\u5212
p1474
I363
sV\u51c7
p1475
I3630
sV\u6816
p1476
I364
sV\u6c99
p1477
I4184
sV\u819b
p1478
I2908
sV\u6e1a
p1479
I365
sV\u829d
p1480
I366
sV\u831c
p1481
I1640
sV\u641e
p1482
I367
sV\u55b1
p1483
I4901
sV\u5ea5
p1484
I2909
sV\u7f24
p1485
I2910
sV\u5026
p1486
I1641
sV\u94a9
p1487
I368
sV\u9528
p1488
I1642
sV\u69ab
p1489
I369
sV\u762a
p1490
I370
sV\u4faf
p1491
I1643
sV\u6c2e
p1492
I4188
sV\u60b1
p1493
I2912
sV\u6734
p1494
I1644
sV\u7cb9
p1495
I2914
sV\u64b8
p1496
I4479
sV\u51bb
p1497
I1645
sV\u77bf
p1498
I371
sV\u543e
p1499
I2915
sV\u88c1
p1500
I2916
sV\u7761
p1501
I2821
sV\u8dc3
p1502
I372
sV\u4ec5
p1503
I373
sV\u5eb7
p1504
I1760
sV\u83c7
p1505
I374
sV\u8046
p1506
I1646
sV\u84c9
p1507
I2917
sV\u6548
p1508
I375
sV\u59cb
p1509
I2918
sV\u5fcf
p1510
I2919
sV\u5c4e
p1511
I4190
sV\u90d1
p1512
I2920
sV\u9150
p1513
I4191
sV\u55d3
p1514
I2921
sV\u7252
p1515
I2922
sV\u96d5
p1516
I2923
sV\u8bd7
p1517
I1647
sV\u8d58
p1518
I376
sV\u548e
p1519
I2615
sV\u94bb
p1520
I4305
sV\u4f69
p1521
I4544
sV\u645e
p1522
I1648
sV\u5960
p1523
I2925
sV\u5a62
p1524
I377
sV\u7ee5
p1525
I378
sV\u5f64
p1526
I2926
sV\u9980
p1527
I3561
sV\u54e9
p1528
I1649
sV\u4e8f
p1529
I4736
sV\u566a
p1530
I379
sV\u8b6c
p1531
I1650
sV\u4fef
p1532
I380
sV\u80f1
p1533
I381
sV\u8170
p1534
I1652
sV\u5693
p1535
I4218
sV\u7a92
p1536
I3870
sV\u8774
p1537
I1653
sV\u7bf7
p1538
I1654
sV\u9876
p1539
I4196
sV\u51fb
p1540
I382
sV\u5e7a
p1541
I1655
sV\u77ff
p1542
I1656
sV\u747e
p1543
I383
sV\u94e9
p1544
I4194
sV\u6e05
p1545
I2929
sV\u4f84
p1546
I384
sV\u6307
p1547
I385
sV\u8086
p1548
I386
sV\u868a
p1549
I387
sV\u7a0d
p1550
I2931
sV\u5b8c
p1551
I388
sV\u5f0f
p1552
I1658
sV\u563f
p1553
I4172
sV\u9011
p1554
I1659
sV\u9190
p1555
I2933
sV\u7292
p1556
I4197
sV\u8896
p1557
I1660
sV\u6c19
p1558
I1661
sV\u8bc5
p1559
I3035
sV\u7ea7
p1560
I1464
sV\u8d48
p1561
I3858
sV\u649e
p1562
I2935
sV\u5821
p1563
I389
sV\u9e25
p1564
I2936
sV\u7fa4
p1565
I390
sV\u90a6
p1566
I1662
sV\u5429
p1567
I391
sV\u6f2f
p1568
I2937
sV\u6cae
p1569
I1663
sV\u91c9
p1570
I3672
sV\u5df2
p1571
I4699
sV\u6635
p1572
I392
sV\uff1f
p1573
I4510
sV\u5b37
p1574
I4201
sV\u5c39
p1575
I1664
sV\u7eba
p1576
I1665
sV\u723d
p1577
I393
sV\u94be
p1578
I2938
sV\u6d43
p1579
I1667
sV\u4e45
p1580
I2940
sV\u8fc4
p1581
I1668
sV\u60c6
p1582
I394
sV\u94dd
p1583
I5035
sV\u60ed
p1584
I3940
sV\u594b
p1585
I395
sV\u77f6
p1586
I2824
sV\u5bcc
p1587
I4205
sV\u9e4c
p1588
I4307
sV\u9051
p1589
I396
sV\u52d2
p1590
I1669
sV\u9655
p1591
I397
sV\u57d4
p1592
I4206
sV\u6dd8
p1593
I1670
sV\u6eda
p1594
I4207
sV\u83dc
p1595
I2941
sV\u675f
p1596
I398
sV\u64de
p1597
I4208
sV\u51fa
p1598
I4096
sV\u5367
p1599
I1671
sV\u90e6
p1600
I399
sV\u55e8
p1601
I400
sV\u96ea
p1602
I401
sV\u8bec
p1603
I4210
sV\u8f6f
p1604
I402
sV\u6cee
p1605
I2944
sV\u8fdd
p1606
I3978
sV\u8c29
p1607
I3257
sV\u67f4
p1608
I403
sV\u7b77
p1609
I4211
sV\u58f6
p1610
I4212
sV\u5c79
p1611
I404
sV\u7a7f
p1612
I4008
sV\u517b
p1613
I2945
sV\u5efa
p1614
I4213
sV\u527d
p1615
I405
sV\u53fc
p1616
I1673
sV\u777f
p1617
I4214
sV\u94fe
p1618
I1674
sV\u6b81
p1619
I406
sV\u8a00
p1620
I407
sV\u6e83
p1621
I2946
sV\u8902
p1622
I2947
sV\u6d85
p1623
I408
sV\u8c04
p1624
I409
sV\u8087
p1625
I1675
sV\u6700
p1626
I4098
sV\u6789
p1627
I410
sV\u8e22
p1628
I4941
sV\u9a8b
p1629
I1676
sV\u5bee
p1630
I5018
sV\u598d
p1631
I1677
sV\u780c
p1632
I4217
sV\u7f0e
p1633
I1678
sV\u7391
p1634
I411
sV\u7693
p1635
I2949
sV\u5112
p1636
I412
sV\u6897
p1637
I1679
sV\u8f99
p1638
I413
sV\u5085
p1639
I2187
sV\u629b
p1640
I1680
sV\u6ea7
p1641
I2071
sV\u819d
p1642
I414
sV\u601c
p1643
I2950
sV\u5ba1
p1644
I2951
sV\u7a20
p1645
I2952
sV\u7ea3
p1646
I1681
sV\u7b5a
p1647
I2419
sV\u73a9
p1648
I4375
sV\u5c24
p1649
I4222
sV\u77a9
p1650
I4223
sV\u69ad
p1651
I2953
sV\u83b1
p1652
I1682
sV\u8230
p1653
I2954
sV\u8132
p1654
I415
sV\u62df
p1655
I3038
sV\u7fb9
p1656
I2955
sV\u5e38
p1657
I416
sV\u915e
p1658
I3675
sV\u51bd
p1659
I4224
sV\u503c
p1660
I417
sV\u54bf
p1661
I1683
sV\u973e
p1662
I418
sV\u6bc1
p1663
I1684
sV\u4ec3
p1664
I2959
sV\u6942
p1665
I2960
sV\u6dc5
p1666
I1685
sV\u9522
p1667
I4061
sV\u8346
p1668
I1686
sV\u8389
p1669
I4368
sV\u70ed
p1670
I4562
sV\u9acb
p1671
I419
sV\u854a
p1672
I1687
sV\u79cd
p1673
I1688
sV\u584c
p1674
I1689
sV\u9ccf
p1675
I420
sV\u53d1
p1676
I421
sV\u5250
p1677
I1691
sV\u9152
p1678
I1692
sV\u75d5
p1679
I1693
sV\u7599
p1680
I4454
sV\u65e2
p1681
I4694
sV\u8fd9
p1682
I4227
sV\u4e58
p1683
I2962
sV\u82db
p1684
I1694
sV\u6d5a
p1685
I1695
sV\u84df
p1686
I1696
sV\u675e
p1687
I1697
sV\u7be1
p1688
I422
sV\u7ee3
p1689
I2965
sV\u5962
p1690
I423
sV\u5de5
p1691
I1699
sV\u90e7
p1692
I1700
sV\u5366
p1693
I424
sV\u77e9
p1694
I425
sV\u9668
p1695
I426
sV\u6309
p1696
I3130
sV\u556a
p1697
I427
sV\u886c
p1698
I1702
sV\u6cef
p1699
I1703
sV\u6f6e
p1700
I428
sV\u83f1
p1701
I429
sV\u8270
p1702
I1704
sV\u66f3
p1703
I1705
sV\u78f7
p1704
I1706
sV\u6068
p1705
I4908
sV\u5e78
p1706
I4232
sV\u9c91
p1707
I4012
sV\u51fd
p1708
I2970
sV\u707c
p1709
I2971
sV\u94ff
p1710
I2972
sV\u777e
p1711
I430
sV\u6a80
p1712
I1707
sV\u4e03
p1713
I1708
sV\u6982
p1714
I4233
sV\u9ebe
p1715
I2710
sV\u8386
p1716
I431
sV\u6709
p1717
I2973
sV\u4fed
p1718
I3040
sV\u7a0b
p1719
I432
sV\u590d
p1720
I4234
sV\u788c
p1721
I1709
sV\u5c0f
p1722
I1710
sV\u7f8e
p1723
I4235
sV\u9192
p1724
I433
sV\u5494
p1725
I434
sV\u6817
p1726
I4236
sV\u6b96
p1727
I2976
sV\u4f19
p1728
I435
sV\u4e98
p1729
I1711
sV\u821b
p1730
I436
sV\u8f9b
p1731
I2828
sV\u9889
p1732
I4627
sV\u7aa0
p1733
I437
sV\u9e23
p1734
I438
sV\u501a
p1735
I2192
sV\u5f8a
p1736
I3204
sV\u7ca4
p1737
I439
sV\u53a6
p1738
I4240
sV\u5729
p1739
I440
sV\u692d
p1740
I441
sV\u80f3
p1741
I3041
sV\u6c2f
p1742
I2977
sV\u4fae
p1743
I442
sV\u8331
p1744
I4241
sV\u906e
p1745
I4645
sV\u7837
p1746
I2978
sV\u5bb6
p1747
I443
sV\u5f39
p1748
I1713
sV\u9eb8
p1749
I444
sV\u523b
p1750
I4244
sV\u914b
p1751
I2624
sV\u4e43
p1752
I445
sV\u5eca
p1753
I1970
sV\u8d45
p1754
I446
sV\u7ef7
p1755
I1775
sV\u988d
p1756
I4258
sV\u63c6
p1757
I447
sV\u8749
p1758
I448
sV\u724d
p1759
I3878
sV\u8f66
p1760
I3436
sV\u9738
p1761
I2684
sV\u5c4f
p1762
I449
sV\u7fce
p1763
I450
sV\u5351
p1764
I2981
sV\u72d0
p1765
I2982
sV\u5555
p1766
I2983
sV\u74f6
p1767
I2798
sV\u8857
p1768
I4249
sV\u4f59
p1769
I4250
sV\u4ed8
p1770
I451
sV\u625b
p1771
I452
sV\u8dda
p1772
I453
sV\u5728
p1773
I4263
sV\u60dc
p1774
I1715
sV\u7cd6
p1775
I4981
sV\u7ae0
p1776
I1716
sV\u5ce4
p1777
I454
sV\u53e6
p1778
I2985
sV\u9769
p1779
I1717
sV\u96e8
p1780
I2986
sV\u95ea
p1781
I455
sV\u7708
p1782
I4850
sV\u8d53
p1783
I3265
sV\u6fee
p1784
I2988
sV\u6371
p1785
I1718
sV\u9877
p1786
I456
sV\u5f79
p1787
I457
sV\u7ef8
p1788
I458
sV\u817e
p1789
I4912
sV\u517d
p1790
I459
sV\u77fe
p1791
I2989
sV\u8f83
p1792
I1721
sV\u6c85
p1793
I460
sV\u5357
p1794
I1976
sV\u8206
p1795
I2990
sV\u8708
p1796
I461
sV\u5b8b
p1797
I4257
sV\u788d
p1798
I462
sV\u8113
p1799
I4969
sV\u752c
p1800
I2196
sV\u5310
p1801
I2991
sV\u5793
p1802
I4259
sV\u5012
p1803
I463
sV\u5495
p1804
I1722
sV\u5514
p1805
I2993
sV\u4f18
p1806
I4260
sV\u62fe
p1807
I3808
sV\u809d
p1808
I464
sV\u659f
p1809
I1723
sV\u9a84
p1810
I3681
sV\u9aa1
p1811
I465
sV\u7b20
p1812
I2994
sV\u9ca5
p1813
I466
sV\u7784
p1814
I1962
sV\u7728
p1815
I2995
sV\u742a
p1816
I467
sV\u88ad
p1817
I1724
sV\u8bb3
p1818
I4104
sV\u6daf
p1819
I468
sV\u8e2e
p1820
I469
sV\u82b1
p1821
I1725
sV\u6109
p1822
I3044
sV\u87b3
p1823
I4264
sV\u6c32
p1824
I4105
sV\u64b5
p1825
I2998
sV\u9b3c
p1826
I2601
sV\u5a36
p1827
I2999
sV\u7eb9
p1828
I3000
sV\u7f38
p1829
I1726
sV\u73bb
p1830
I470
sV\u5c3a
p1831
I3001
sV\u70bd
p1832
I3002
sV\u7934
p1833
I2200
sV\u4fc3
p1834
I3003
sV\u6842
p1835
I3004
sV\u6cc5
p1836
I1728
sV\u8d44
p1837
I4267
sV\u51e0
p1838
I76
sV\u6748
p1839
I471
sV\u74e3
p1840
I2573
sV\u5636
p1841
I2836
sV\u7350
p1842
I472
sV\u9052
p1843
I1729
sV\u7554
p1844
I473
sV\u54ce
p1845
I1367
sV\u4ed9
p1846
I1730
sV\u4f58
p1847
I3006
sV\u8c5a
p1848
I3007
sV\u865e
p1849
I3008
sV\u5ae1
p1850
I1731
sV\u7b60
p1851
I4270
sV\u6717
p1852
I4037
sV\u5ce5
p1853
I1732
sV\u71e7
p1854
I3009
sV\u7266
p1855
I1733
sV\u5768
p1856
I3010
sV\u6beb
p1857
I1734
sV\u96ef
p1858
I3196
sV\u8def
p1859
I3012
sV\u6e6e
p1860
I474
sV\u82f1
p1861
I475
sV\u67f3
p1862
I1735
sV\u7792
p1863
I4314
sV\u8574
p1864
I1736
sV\u7a76
p1865
I476
sV\u5315
p1866
I4315
sV\u6a3e
p1867
I4704
sV\u90fd
p1868
I477
sV\u517c
p1869
I4275
sV\u75ff
p1870
I1738
sV\u767e
p1871
I478
sV\u8882
p1872
I479
sV\u8c05
p1873
I1739
sV\u8d84
p1874
I3014
sV\u5740
p1875
I2203
sV\u7b0b
p1876
I480
sV\u80f0
p1877
I4179
sV\u780d
p1878
I3015
sV\u5211
p1879
I4276
sV\u9713
p1880
I4277
sV\u7092
p1881
I4278
sV\u5415
p1882
I4279
sV\u5594
p1883
I481
sV\u55ea
p1884
I2987
sV\u9898
p1885
I4916
sV\u4e19
p1886
I482
sV\u8f98
p1887
I4280
sV\u631b
p1888
I4281
sV\u74ee
p1889
I3273
sV\u601d
p1890
I1740
sV\u819c
p1891
I4282
sV\u741b
p1892
I4917
sV\u5ba0
p1893
I1741
sV\u98a2
p1894
I1742
sV\u6986
p1895
I3832
sV\u7629
p1896
I1743
sV\u54aa
p1897
I4283
sV\u8d2f
p1898
I1744
sV\u4eae
p1899
I483
sV\u8231
p1900
I4284
sV\u63b0
p1901
I4285
sV\u60b2
p1902
I1745
sV\u621f
p1903
I4317
sV\u5937
p1904
I4286
sV\u7fb8
p1905
I4287
sV\u533b
p1906
I4288
sV\u51bc
p1907
I3017
sV\u96be
p1908
I3018
sV\u8bc0
p1909
I1746
sV\u4f43
p1910
I484
sV\u68c2
p1911
I485
sV\u8dc4
p1912
I1747
sV\u62c6
p1913
I486
sV\u7b4b
p1914
I1748
sV\u60f6
p1915
I3274
sV\u7ece
p1916
I487
sV\u5251
p1917
I3020
sV\u73d0
p1918
I3021
sV\u9753
p1919
I3022
sV\u5455
p1920
I3023
sV\u51cf
p1921
I2841
sV\u8e59
p1922
I1749
sV\u4fd8
p1923
I488
sV\u6ed1
p1924
I2206
sV\u5c65
p1925
I4294
sV\u7167
p1926
I489
sV\u9f50
p1927
I4108
sV\u9669
p1928
I1750
sV\u70fd
p1929
I4274
sV\u54d0
p1930
I4327
sV\u54ea
p1931
I3026
sV\u7bd3
p1932
I4109
sV\u726f
p1933
I4624
sV\u6773
p1934
I4296
sV\u8475
p1935
I3027
sV\u4f7f
p1936
I3275
sV\u9977
p1937
I490
sV\u78d5
p1938
I1575
sV\u907d
p1939
I3028
sV\u957f
p1940
I491
sV\u96fe
p1941
I1752
sV\u8d81
p1942
I4300
sV\u8c00
p1943
I492
sV\u6f02
p1944
I1753
sV\u6f14
p1945
I4492
sV\u6687
p1946
I3030
sV\u5f2d
p1947
I2430
sV\u5e0c
p1948
I3031
sV\u9a8f
p1949
I1754
sV\u4eac
p1950
I3048
sV\u7591
p1951
I493
sV\u5410
p1952
I3032
sV\u9093
p1953
I1755
sV\u5395
p1954
I1756
sV\u679d
p1955
I4302
sV\u652b
p1956
I2784
sV\u5531
p1957
I2431
sV\u78a3
p1958
I1757
sV\u7f22
p1959
I494
sV\u96a7
p1960
I3033
sV\u9526
p1961
I4303
sV\u83e9
p1962
I5005
sV\u6cab
p1963
I495
sV\u732a
p1964
I496
sV\u6d5c
p1965
I4110
sV\u9f89
p1966
I4520
sV\u51c0
p1967
I4513
sV\u6234
p1968
I1759
sV\u7eb7
p1969
I497
sV\u5e08
p1970
I3280
sV\u79b9
p1971
I3034
sV\u7838
p1972
I1761
sV\u54bb
p1973
I1762
sV\u7b3a
p1974
I4306
sV\u52bf
p1975
I1763
sV\u6c40
p1976
I498
sV\u6bc5
p1977
I1764
sV\u6a44
p1978
I499
sV\u86c7
p1979
I500
sV\u5760
p1980
I2848
sV\u5459
p1981
I4516
sV\u918d
p1982
I3889
sV\u5ccb
p1983
I3036
sV\u5fcd
p1984
I501
sV\u5e4c
p1985
I1765
sV\u63d6
p1986
I3917
sV\u594e
p1987
I4308
sV\u55d1
p1988
I502
sV\u5450
p1989
I1766
sV\u9752
p1990
I1767
sV\u5254
p1991
I1768
sV\u4ed7
p1992
I4309
sV\u8d56
p1993
I3037
sV\u9519
p1994
I3207
sV\u82df
p1995
I1769
sV\u5de1
p1996
I1770
sV\u5c60
p1997
I3039
sV\u5f62
p1998
I503
sV\u5be5
p1999
I1772
sV\u7f04
p2000
I4782
sV\u5566
p2001
I504
sV\u9068
p2002
I505
sV\u7c41
p2003
I4977
sV\u8e66
p2004
I3473
sV\u8fed
p2005
I506
sV\u8e6c
p2006
I1773
sV\u56bc
p2007
I3049
sV\u65f1
p2008
I4310
sV\u60f3
p2009
I1774
sV\u8912
p2010
I3281
sV\u789a
p2011
I3794
sV\u707f
p2012
I4412
sV\u5ef7
p2013
I507
sV\u55f2
p2014
I5019
sV\u59f9
p2015
I3042
sV\u7eb0
p2016
I4687
sV\u5b7a
p2017
I1776
sV\u77fd
p2018
I4311
sV\u567c
p2019
I4312
sV\u52ff
p2020
I508
sV\u6d01
p2021
I3043
sV\u6d41
p2022
I4324
sV\u6a84
p2023
I1777
sV\u9aef
p2024
I3678
sV\u8109
p2025
I1778
sV\u54ed
p2026
I3474
sV\u7c97
p2027
I2483
sV\u5316
p2028
I1988
sV\u7586
p2029
I4913
sV\u9511
p2030
I1779
sV\u5490
p2031
I509
sV\u5792
p2032
I3045
sV\u7315
p2033
I3046
sV\u6e17
p2034
I4316
sV\u5618
p2035
I4522
sV\u8297
p2036
I2561
sV\u6b9a
p2037
I3047
sV\u671d
p2038
I1781
sV\u9a9b
p2039
I3283
sV\u821f
p2040
I510
sV\u7823
p2041
I4318
sV\u851a
p2042
I3892
sV\u6155
p2043
I5014
sV\u9aa4
p2044
I4319
sV\u4f70
p2045
I4115
sV\u50a8
p2046
I1782
sV\u8eac
p2047
I511
sV\u9e2d
p2048
I4975
sV\u7768
p2049
I4271
sV\u5149
p2050
I3690
sV\u8033
p2051
I1783
sV\u8335
p2052
I4321
sV\u9c9f
p2053
I3284
sV\u5e37
p2054
I4322
sV\u5939
p2055
I1784
sV\u68f5
p2056
I4116
sV\u543b
p2057
I4323
sV\u96bc
p2058
I512
sV\u5974
p2059
I4711
sV\u8d41
p2060
I513
sV\u6843
p2061
I1785
sV\u6fc2
p2062
I514
sV\u95f7
p2063
I2851
sV\u8367
p2064
I4816
sV\u5c4b
p2065
I515
sV\u9676
p2066
I4117
sV\u8beb
p2067
I3011
sV\u7ecc
p2068
I3050
sV\u9551
p2069
I516
sV\u94d0
p2070
I1786
sV\u9053
p2071
I3051
sV\u9cab
p2072
I4900
sV\u5355
p2073
I3052
sV\u5ea6
p2074
I4130
sV\u6dd6
p2075
I4328
sV\u68d8
p2076
I1787
sV\u5f69
p2077
I3920
sV\u8bda
p2078
I517
sV\u7ffb
p2079
I1583
sV\u7ce0
p2080
I1789
sV\u86f0
p2081
I4408
sV\u98a7
p2082
I2635
sV\u6361
p2083
I3309
sV\u55e6
p2084
I3054
sV\u9169
p2085
I1790
sV\u70e8
p2086
I1791
sV\u8c6b
p2087
I518
sV\u53ea
p2088
I3056
sV\u6f6d
p2089
I1792
sV\u4eec
p2090
I1793
sV\u4fa9
p2091
I3286
sV\u6073
p2092
I4330
sV\u87d2
p2093
I4926
sV\u62f4
p2094
I519
sV\u5979
p2095
I520
sV\u547b
p2096
I3057
sV\u5435
p2097
I2387
sV\u777d
p2098
I1794
sV\u76fc
p2099
I521
sV\u527f
p2100
I3058
sV\u62d4
p2101
I3693
sV\u6c81
p2102
I522
sV\u7601
p2103
I3475
sV\u8983
p2104
I1795
sV\u8d2a
p2105
I4525
sV\u6787
p2106
I3059
sV\u6089
p2107
I523
sV\u7eb8
p2108
I4243
sV\u620a
p2109
I1796
sV\uff0c
p2110
I4334
sV\u5b8f
p2111
I4335
sV\u9510
p2112
I524
sV\u6482
p2113
I4121
sV\u4f97
p2114
I525
sV\u88d8
p2115
I3053
sV\u9005
p2116
I2215
sV\u659b
p2117
I1797
sV\u869d
p2118
I526
sV\u871c
p2119
I1798
sV\u7d20
p2120
I3063
sV\u9aa5
p2121
I527
sV\u77a7
p2122
I1799
sV\u7426
p2123
I528
sV\u50a9
p2124
I3064
sV\u722a
p2125
I529
sV\u4ead
p2126
I4337
sV\u8baf
p2127
I4338
sV\u66dc
p2128
I1788
sV\u6c11
p2129
I3406
sV\u81b3
p2130
I4339
sV\u62b5
p2131
I3065
sV\u8334
p2132
I3066
sV\u5fb7
p2133
I1801
sV\u5938
p2134
I530
sV\u55bb
p2135
I1802
sV\u96bd
p2136
I1803
sV\u773c
p2137
I1804
sV\u53bf
p2138
I1805
sV\u903e
p2139
I531
sV\u5893
p2140
I3966
sV\u8e42
p2141
I1806
sV\u8446
p2142
I1807
sV\u6148
p2143
I532
sV\u8339
p2144
I4689
sV\u7ecd
p2145
I1808
sV\u8863
p2146
I4930
sV\u54d1
p2147
I533
sV\u9550
p2148
I4340
sV\u810f
p2149
I4714
sV\u4fd7
p2150
I4341
sV\u6127
p2151
I4877
sV\u88d9
p2152
I4342
sV\u66dd
p2153
I534
sV\u80b2
p2154
I3016
sV\u5ce1
p2155
I1809
sV\u5bb0
p2156
I3341
sV\u79e3
p2157
I3070
sV\u5e62
p2158
I535
sV\u7ae5
p2159
I536
sV\u5b64
p2160
I3071
sV\u97e7
p2161
I1810
sV\u5466
p2162
I537
sV\u70e9
p2163
I538
sV\u5168
p2164
I3072
sV\u6deb
p2165
I1811
sV\u526a
p2166
I539
sV\u8f6c
p2167
I1812
sV\u6bef
p2168
I1813
sV\u886e
p2169
I4347
sV\u6570
p2170
I3074
sV\u81f3
p2171
I3075
sV\u6eb6
p2172
I2550
sV\u90e8
p2173
I3055
sV\u58f9
p2174
I3076
sV\u7978
p2175
I3077
sV\u95fb
p2176
I3078
sV\u7a7a
p2177
I540
sV\u56fd
p2178
I3079
sV\u977c
p2179
I1815
sV\u707e
p2180
I541
sV\u8c01
p2181
I1816
sV\u6b84
p2182
I1817
sV\u8840
p2183
I4154
sV\u8188
p2184
I3080
sV\u828a
p2185
I542
sV\u5f8c
p2186
I543
sV\u788e
p2187
I4350
sV\u5411
p2188
I4351
sV\u4f17
p2189
I3082
sV\u55b9
p2190
I3821
sV\u6998
p2191
I544
sV\u679c
p2192
I545
sV\u7ea5
p2193
I4185
sV\u609a
p2194
I2855
sV\u5a25
p2195
I546
sV\u5ba4
p2196
I1819
sV\u94a6
p2197
I1820
sV\u5029
p2198
I547
sV\u71a8
p2199
I548
sV\u8d2b
p2200
I1821
sV\u52aa
p2201
I4354
sV\u6e2d
p2202
I549
sV\u4fac
p2203
I3084
sV\u8431
p2204
I4355
sV\u85b0
p2205
I550
sV\u8235
p2206
I4357
sV\u83b4
p2207
I551
sV\u9cb6
p2208
I3085
sV\u953b
p2209
I1823
sV\u9aba
p2210
I3087
sV\u733f
p2211
I3088
sV\u8c41
p2212
I552
sV\u6dc0
p2213
I3089
sV\u6ec2
p2214
I553
sV\u8bc4
p2215
I1824
sV\u8747
p2216
I3090
sV\u57a0
p2217
I1586
sV\u61c8
p2218
I3091
sV\u5d4b
p2219
I554
sV\u7fcc
p2220
I3092
sV\u7b4f
p2221
I1825
sV\u504c
p2222
I1385
sV\u76d2
p2223
I555
sV\u53d4
p2224
I4363
sV\u4f57
p2225
I1826
sV\u8859
p2226
I1827
sV\u655b
p2227
I556
sV\u674e
p2228
I3289
sV\u67dc
p2229
I1828
sV\u635f
p2230
I557
sV\u80de
p2231
I558
sV\u5c61
p2232
I4365
sV\u9ee2
p2233
I559
sV\u7d27
p2234
I4129
sV\u54e6
p2235
I3094
sV\u8d6b
p2236
I560
sV\u7ea6
p2237
I2858
sV\u8e6d
p2238
I3095
sV\u7ed3
p2239
I3900
sV\u8748
p2240
I4268
sV\u68ee
p2241
I3096
sV\u8471
p2242
I3097
sV\u66f2
p2243
I3098
sV\u63f4
p2244
I561
sV\u5f77
p2245
I3099
sV\u58ee
p2246
I4984
sV\u9879
p2247
I3100
sV\u79f8
p2248
I562
sV\u557b
p2249
I3101
sV\u7afa
p2250
I3102
sV\u767d
p2251
I1829
sV\u537f
p2252
I3103
sV\u4e00
p2253
I3104
sV\u6487
p2254
I3105
sV\u6389
p2255
I563
sV\u6208
p2256
I4369
sV\u9e8b
p2257
I1830
sV\u810a
p2258
I3106
sV\u7c0c
p2259
I4370
sV\u7791
p2260
I564
sV\u9610
p2261
I565
sV\u5195
p2262
I1831
sV\u9014
p2263
I566
sV\u6574
p2264
I3013
sV\u8c22
p2265
I5028
sV\u82ae
p2266
I2860
sV\u641c
p2267
I3108
sV\u609f
p2268
I1832
sV\u631e
p2269
I567
sV\u5fa1
p2270
I3109
sV\u9e20
p2271
I1833
sV\u714a
p2272
I3740
sV\u7d22
p2273
I568
sV\u99a5
p2274
I569
sV\u5824
p2275
I4374
sV\u54a7
p2276
I570
sV\u53a9
p2277
I3112
sV\u5228
p2278
I4376
sV\u4eab
p2279
I1835
sV\u7406
p2280
I2444
sV\u8c2c
p2281
I3113
sV\u68af
p2282
I571
sV\u8089
p2283
I4332
sV\u82b3
p2284
I4378
sV\u9cb2
p2285
I3484
sV\u5cb7
p2286
I1836
sV\u6108
p2287
I4333
sV\u5bb9
p2288
I4379
sV\u593a
p2289
I3114
sV\u75bd
p2290
I3115
sV\u543c
p2291
I572
sV\u533e
p2292
I3116
sV\u8fc1
p2293
I3117
sV\u83e1
p2294
I4530
sV\u8d42
p2295
I1838
sV\u89c5
p2296
I3118
sV\u7537
p2297
I2861
sV\u6746
p2298
I3119
sV\u63c9
p2299
I1839
sV\u6248
p2300
I573
sV\u814a
p2301
I1840
sV\u5dcd
p2302
I574
sV\u5239
p2303
I1592
sV\u9552
p2304
I1841
sV\u71d5
p2305
I1842
sV\u6cd7
p2306
I3120
sV\u6bd9
p2307
I575
sV\u6a58
p2308
I4385
sV\u86db
p2309
I1843
sV\u695a
p2310
I1844
sV\u60df
p2311
I3121
sV\u635e
p2312
I1845
sV\u7fe1
p2313
I576
sV\u7ae3
p2314
I3123
sV\u59e5
p2315
I1847
sV\u94e7
p2316
I1848
sV\u5766
p2317
I577
sV\u73e9
p2318
I578
sV\u6bb4
p2319
I4043
sV\u916a
p2320
I3124
sV\u796f
p2321
I5067
sV\u67f1
p2322
I4388
sV\u6670
p2323
I3125
sV\u62f3
p2324
I1851
sV\u6572
p2325
I579
sV\u61f5
p2326
I4389
sV\u95f2
p2327
I2512
sV\u5bf9
p2328
I3126
sV\u9a78
p2329
I1852
sV\u797a
p2330
I580
sV\u95fd
p2331
I581
sV\u547c
p2332
I4391
sV\u8dc6
p2333
I3995
sV\u4f01
p2334
I4392
sV\u6d82
p2335
I4393
sV\u6905
p2336
I3128
sV\u8f97
p2337
I3061
sV\u8309
p2338
I1853
sV\u818a
p2339
I582
sV\u5c8c
p2340
I583
sV\u9690
p2341
I3131
sV\u7115
p2342
I3132
sV\u8c17
p2343
I584
sV\u8f96
p2344
I1854
sV\u859b
p2345
I3062
sV\u839e
p2346
I1855
sV\u7ea0
p2347
I585
sV\u5a23
p2348
I3133
sV\u6f4d
p2349
I4923
sV\u98a4
p2350
I4396
sV\u5427
p2351
I3134
sV\u5668
p2352
I2967
sV\u7329
p2353
I1856
sV\u52a8
p2354
I1857
sV\u4e2b
p2355
I4398
sV\u8d2d
p2356
I4399
sV\u8bae
p2357
I3135
sV\u6731
p2358
I586
sV\u6233
p2359
I3136
sV\u80b4
p2360
I587
sV\u9ab8
p2361
I588
sV\u963b
p2362
I1858
sV\u79ba
p2363
I1859
sV\u94bc
p2364
I589
sV\u653b
p2365
I3715
sV\u6c41
p2366
I4360
sV\u4ec0
p2367
I4402
sV\u6447
p2368
I1860
sV\u87c6
p2369
I4403
sV\u8349
p2370
I590
sV\u62c8
p2371
I3137
sV\u61ca
p2372
I591
sV\u6749
p2373
I4248
sV\u9ccc
p2374
I1861
sV\u5751
p2375
I3138
sV\u76d0
p2376
I3139
sV\u75d2
p2377
I592
sV\u6c57
p2378
I593
sV\u7aa5
p2379
I4336
sV\u82ce
p2380
I4723
sV\u655d
p2381
I3140
sS'_'
p2382
I2
sV\u7f61
p2383
I3141
sV\u9ee0
p2384
I3142
sV\u5de2
p2385
I3143
sV\u9965
p2386
I1863
sV\u58e4
p2387
I594
sV\u97e6
p2388
I595
sV\u7bb4
p2389
I4657
sV\u5426
p2390
I1800
sV\u787c
p2391
I2651
sV\u66f0
p2392
I596
sV\u8273
p2393
I597
sV\u6175
p2394
I1864
sV\u60f4
p2395
I598
sV\u7b79
p2396
I1865
sV\u767b
p2397
I4411
sV\u54fc
p2398
I1866
sV\u907f
p2399
I599
sV\u8e81
p2400
I4413
sV\u6301
p2401
I2652
sV\u6b83
p2402
I3146
sV\u822a
p2403
I4943
sV\u6885
p2404
I600
sV\u8587
p2405
I1867
sV\u6606
p2406
I1868
sV\u6289
p2407
I601
sV\u55d4
p2408
I4292
sV\u9f8b
p2409
I1869
sV\u9c8d
p2410
I4417
sV\u998f
p2411
I1870
sV\u7a0e
p2412
I1871
sV\u7691
p2413
I602
sV\u786b
p2414
I4776
sV\u5412
p2415
I603
sV\u7095
p2416
I604
sV\u7ad6
p2417
I4886
sV\u4e16
p2418
I1872
sV\u916e
p2419
I4607
sV\u821e
p2420
I4419
sV\u9f20
p2421
I1873
sV\u5ba3
p2422
I605
sV\u60da
p2423
I4137
sV\u55a7
p2424
I606
sV\u7626
p2425
I607
sV\u52a9
p2426
I3150
sV\u6d4e
p2427
I3511
sV\u8fab
p2428
I4421
sV\u502a
p2429
I1874
sV\u6cad
p2430
I3151
sV\u8d2c
p2431
I3152
sV\u86b1
p2432
I1875
sV\u4f09
p2433
I3903
sV\u63b3
p2434
I608
sV\u5632
p2435
I3699
sV\u895f
p2436
I4138
sV\u7fa1
p2437
I4373
sV\u77bb
p2438
I609
sV\u783a
p2439
I4422
sV\u54bd
p2440
I4423
sV\u4ec1
p2441
I610
sV\u8bc3
p2442
I611
sV\u6c42
p2443
I3153
sV\u88c5
p2444
I3154
sV\u8944
p2445
I4424
sV\u87e0
p2446
I3491
sV\u62c9
p2447
I1877
sV\u804a
p2448
I1878
sV\u9ccd
p2449
I3155
sV\u5d4c
p2450
I1879
sV\u5cb1
p2451
I4631
sV\u76d1
p2452
I1880
sV\u7750
p2453
I612
sV\u74e2
p2454
I4139
sV\u540f
p2455
I1392
sV\u4e56
p2456
I613
sV\u5065
p2457
I4140
sV\u84dd
p2458
I4425
sV\u555c
p2459
I3782
sV\u5178
p2460
I4029
sV\u6ee8
p2461
I2027
sV\u75e7
p2462
I3156
sV\u72e9
p2463
I614
sV\u8feb
p2464
I3157
sV\u4e18
p2465
I4219
sV\u6770
p2466
I3158
sV\u5992
p2467
I2656
sV\u8174
p2468
I1884
sV\u5df7
p2469
I615
sV\u5e76
p2470
I1885
sV\u7af9
p2471
I4426
sV\u503e
p2472
I3067
sV\u54fd
p2473
I3159
sV\u557c
p2474
I4428
sV\u51ff
p2475
I616
sV\u4e01
p2476
I4429
sV\u8c82
p2477
I617
sV\u6805
p2478
I3160
sV\u6984
p2479
I1886
sV\u522b
p2480
I4537
sV\u6388
p2481
I1887
sV\u5f0b
p2482
I1888
sV\u590f
p2483
I1889
sV\u9611
p2484
I1890
sV\u9492
p2485
I618
sV\u7194
p2486
I1891
sV\u6d17
p2487
I4432
sV\u9698
p2488
I4535
sV\u671b
p2489
I4433
sV\u841d
p2490
I3162
sV\u659c
p2491
I619
sV\u611f
p2492
I4434
sV\u9e21
p2493
I3163
sV\u9ca2
p2494
I1892
sV\u7825
p2495
I1893
sV\u59a4
p2496
I1894
sV\u5527
p2497
I3164
sV\u5229
p2498
I620
sV\u53a8
p2499
I1895
sV\u6f2b
p2500
I3165
sV\u90aa
p2501
I1896
sV\u8c2d
p2502
I4436
sV\u989c
p2503
I4536
sV\u6631
p2504
I621
sV\u84b2
p2505
I3166
sV\u6035
p2506
I622
sV\u6c1f
p2507
I3906
sV\u5eb6
p2508
I623
sV\u7a39
p2509
I624
sV\u5bb8
p2510
I3167
sV\u6005
p2511
I2852
sV\u6865
p2512
I3802
sV\u513f
p2513
I4439
sV\u52be
p2514
I625
sV\u6fc0
p2515
I3168
sV\u8845
p2516
I626
sV\u89c4
p2517
I1898
sV\u9981
p2518
I4733
sV\u86c6
p2519
I4441
sV\u6249
p2520
I4442
sV\u9ecd
p2521
I3069
sV\u60ca
p2522
I627
sV\u7c4d
p2523
I4443
sV\u594f
p2524
I628
sV\u5353
p2525
I629
sV\u74d2
p2526
I630
sV\u5055
p2527
I3169
sV\u8363
p2528
I4727
sV\u4ed6
p2529
I3170
sV\u6a59
p2530
I3171
sV\u9525
p2531
I2658
sV\u68da
p2532
I4444
sV\u7751
p2533
I4406
sV\u85dc
p2534
I3173
sV\u82de
p2535
I631
sV\u5e61
p2536
I4445
sV\u5fe0
p2537
I632
sV\u5b63
p2538
I1901
sV\u60fa
p2539
I3497
sV\u90af
p2540
I4668
sV\u79e4
p2541
I1902
sV\u5567
p2542
I1903
sV\u7269
p2543
I3174
sV\u53e8
p2544
I633
sV\u8f6b
p2545
I634
sV\u6dec
p2546
I635
sV\u8671
p2547
I3175
sV\u7f29
p2548
I1397
sV\u81f4
p2549
I4447
sV\u7ef6
p2550
I3176
sV\u7a79
p2551
I1904
sV\u5bf8
p2552
I1905
sV\u7956
p2553
I2256
sV\u78fa
p2554
I3178
sV\u547d
p2555
I636
sV\u75fc
p2556
I637
sV\u917f
p2557
I638
sV\u52fe
p2558
I4449
sV\u9000
p2559
I639
sV\u7483
p2560
I3179
sV\u7785
p2561
I640
sV\u9604
p2562
I641
sV\u9a87
p2563
I1907
sV\u808b
p2564
I1908
sV\u5f0a
p2565
I642
sV\u820c
p2566
I643
sV\u88d5
p2567
I3470
sV\u50ac
p2568
I3303
sV\u6c93
p2569
I3180
sV\u8f95
p2570
I4452
sV\u4e14
p2571
I3181
sV\u7116
p2572
I644
sV\u5599
p2573
I3182
sV\u9f85
p2574
I4735
sV\u97a3
p2575
I2680
sV\u5b9d
p2576
I3183
sV\u75db
p2577
I3705
sV\u5e9f
p2578
I645
sV\u6020
p2579
I3185
sV\u5165
p2580
I4091
sV\u6da9
p2581
I4456
sV\u8c28
p2582
I1909
sV\u70ab
p2583
I646
sV\u6f2a
p2584
I647
sV\u722c
p2585
I1911
sV\u952e
p2586
I648
sV\u8f88
p2587
I2699
sV\u5830
p2588
I649
sV\u7cb3
p2589
I650
sV\u8d35
p2590
I3910
sV\u5fb5
p2591
I4457
sV\u82b7
p2592
I4458
sV\u65b9
p2593
I3188
sV\u8438
p2594
I3189
sV\u673a
p2595
I4459
sV\u8bbd
p2596
I1914
sV\u4ebf
p2597
I1915
sV\u8d3e
p2598
I651
sV\u94c3
p2599
I652
sV\u7f08
p2600
I4550
sV\u9644
p2601
I4461
sV\u94ce
p2602
I3880
sV\u5c48
p2603
I1916
sV\u5511
p2604
I4313
sV\u89d2
p2605
I4542
sV\u63cd
p2606
I1917
sV\u59e3
p2607
I4344
sV\u89d1
p2608
I3190
sV\u6850
p2609
I653
sV\u6cd3
p2610
I4463
sV\u4e54
p2611
I1918
sV\u72d7
p2612
I3191
sV\u5156
p2613
I654
sV\u5458
p2614
I3192
sV\u575a
p2615
I655
sV\u7bdd
p2616
I656
sV\u7edf
p2617
I3193
sV\u6b64
p2618
I4957
sV\u6362
p2619
I1920
sV\u67e5
p2620
I657
sV\u6664
p2621
I4464
sV\u6c68
p2622
I4465
sV\u70eb
p2623
I1921
sV\u53ed
p2624
I3195
sV\u76ef
p2625
I1922
sV\u556e
p2626
I1923
sV\u5ff5
p2627
I3197
sV\u5c3f
p2628
I3912
sV\u62f7
p2629
I1924
sV\u7168
p2630
I4345
sV\u6478
p2631
I3199
sV\u8bfd
p2632
I658
sV\u4eff
p2633
I659
sV\u83ba
p2634
I3376
sV\u5080
p2635
I660
sV\u7403
p2636
I661
sV\u5382
p2637
I3201
sV\u7684
p2638
I1927
sV\u5a07
p2639
I1928
sV\u9986
p2640
I662
sV\u9c88
p2641
I3203
sV\u800b
p2642
I4469
sV\u9f8a
p2643
I663
sV\u660f
p2644
I664
sV\u4f6c
p2645
I4346
sV\u6c13
p2646
I665
sV\u81c2
p2647
I3913
sV\u6f15
p2648
I3205
sV\u4e94
p2649
I666
sV\u5217
p2650
I3206
sV\u7519
p2651
I1929
sV\u7a9c
p2652
I667
sV\u9e1f
p2653
I668
sV\u54c4
p2654
I4541
sV\u60a0
p2655
I669
sV\u63a2
p2656
I3208
sV\u8725
p2657
I3209
sV\u86a4
p2658
I4475
sV\u8d29
p2659
I3210
sV\u5bc6
p2660
I2019
sV\u72ac
p2661
I4477
sV\u75ae
p2662
I1930
sV\u5931
p2663
I1931
sV\u78b0
p2664
I4478
sV\u9672
p2665
I4961
sV\u8237
p2666
I1932
sV\u6539
p2667
I670
sV\u84b8
p2668
I671
sV\u87ba
p2669
I3212
sV\u998d
p2670
I4216
sV\u8dbe
p2671
I3213
sV\u5141
p2672
I3214
sV\u5443
p2673
I672
sV\u73c2
p2674
I673
sV\u96c4
p2675
I1934
sV\u79c6
p2676
I674
sV\u514d
p2677
I2661
sV\u604b
p2678
I1936
sV\u7fca
p2679
I675
sV\u634d
p2680
I4480
sV\u62cc
p2681
I3216
sV\u664f
p2682
I1937
sV\u65ce
p2683
I676
sV\u6bd2
p2684
I677
sV\u4f55
p2685
I3218
sV\u6ed4
p2686
I3219
sV\u5978
p2687
I4348
sV\u7559
p2688
I3220
sV\u6fa1
p2689
I4991
sV\u57ad
p2690
I4597
sV\u7b5d
p2691
I3221
sV\u6cfd
p2692
I4712
sV\u5dde
p2693
I3222
sV\u60e0
p2694
I1938
sV\u8463
p2695
I4484
sV\u5a7a
p2696
I1814
sV\u6765
p2697
I3223
sV\u86e4
p2698
I3224
sV\u89e6
p2699
I678
sV\u6d69
p2700
I3225
sV\u6ce8
p2701
I1939
sV\u706b
p2702
I4485
sV\u8fea
p2703
I679
sV\u736d
p2704
I1940
sV\u72ec
p2705
I680
sV\u95ee
p2706
I1941
sV\u9971
p2707
I3227
sV\u58f0
p2708
I1942
sV\u7c73
p2709
I4486
sV\u8c34
p2710
I2637
sV\u7ef4
p2711
I681
sV\u5428
p2712
I4146
sV\u9634
p2713
I3507
sV\u8e7f
p2714
I682
sV\u5c01
p2715
I4963
sV\u5583
p2716
I4488
sV\u9685
p2717
I4489
sV\u9704
p2718
I683
sV\u5b87
p2719
I4490
sV\u5806
p2720
I684
sV\u7c89
p2721
I685
sV\u618b
p2722
I3229
sV\u53d6
p2723
I3307
sV\u828d
p2724
I4491
sV\u840e
p2725
I3230
sV\u8910
p2726
I686
sV\u6d93
p2727
I3231
sV\u4e95
p2728
I1943
sV\u8eaf
p2729
I4148
sV\u9499
p2730
I687
sV\u7518
p2731
I3233
sV\u6d2e
p2732
I4149
sV\u7a9d
p2733
I4494
sV\u95eb
p2734
I3398
sV\u7f9f
p2735
I1944
sV\u80a1
p2736
I688
sV\u6120
p2737
I3235
sV\u8ba7
p2738
I3236
sV\u8d28
p2739
I1945
sV\u4e2a
p2740
I1946
sV\u52ad
p2741
I4496
sV\u732c
p2742
I1947
sV\u6dde
p2743
I3846
sV\u542e
p2744
I3237
sV\u78b1
p2745
I3238
sV\u5a32
p2746
I3239
sV\u7eb5
p2747
I3240
sV\u7f34
p2748
I1948
sV\u63b7
p2749
I689
sV\u8036
p2750
I690
sV\u6538
p2751
I1949
sV\u69bb
p2752
I691
sV\u4fde
p2753
I2663
sV\u4fbf
p2754
I1950
sV\u7634
p2755
I2243
sV\u70c1
p2756
I1951
sV\u5140
p2757
I1952
sV\u628a
p2758
I4349
sV\u76c5
p2759
I1953
sV\u5bc7
p2760
I3244
sV\u4e0d
p2761
I4968
sV\u61cb
p2762
I4501
sV\u9e4a
p2763
I1954
sV\u62cd
p2764
I1955
sV\u67cf
p2765
I4502
sV\u7f8c
p2766
I1818
sV\u4ed5
p2767
I692
sV\u53d7
p2768
I4503
sV\u7c38
p2769
I1611
sV\u5565
p2770
I3919
sV\u90bb
p2771
I4152
sV\u5b5c
p2772
I3246
sV\u7fdf
p2773
I3247
sV\u5c5e
p2774
I693
sV\u80e1
p2775
I4504
sV\u7f3a
p2776
I4153
sV\u8be7
p2777
I1957
sV\u6866
p2778
I1958
sV\u72ed
p2779
I4505
sV\u6d32
p2780
I4064
sV\u9970
p2781
I1959
sV\u5df3
p2782
I694
sV\u7ef5
p2783
I4506
sV\u6076
p2784
I695
sV\u5a74
p2785
I4608
sV\u667a
p2786
I696
sV\u6b7c
p2787
I3248
sV\u6c7e
p2788
I697
sV\u9001
p2789
I1960
sV\u5180
p2790
I698
sV\u9503
p2791
I4507
sV\u9605
p2792
I1961
sV\u5784
p2793
I699
sV\u9886
p2794
I700
sV\u5c09
p2795
I4508
sV\u85e9
p2796
I4751
sV\u5e8a
p2797
I3249
sV\u820d
p2798
I1963
sV\u638c
p2799
I1964
sV\u6811
p2800
I3251
sV\u822c
p2801
I2565
sV\u4e15
p2802
I4509
sV\u5317
p2803
I3252
sV\u7096
p2804
I3253
sV\u5598
p2805
I1965
sV\u5b9c
p2806
I1966
sV\u5f1f
p2807
I3254
sV\u8e44
p2808
I4155
sV\u6021
p2809
I1967
sV\u7b71
p2810
I2028
sV\u62a2
p2811
I3255
sV\u6625
p2812
I1968
sV\u62c7
p2813
I4156
sV\u6b27
p2814
I4511
sV\u68a6
p2815
I3256
sV\u9080
p2816
I3200
sV\u6da8
p2817
I701
sV\u6c1b
p2818
I3987
sV\u6eaa
p2819
I3258
sV\u5e73
p2820
I3311
sV\u772f
p2821
I3259
sV\u94ae
p2822
I3260
sV\u5ab2
p2823
I702
sV\u9e35
p2824
I4512
sV\u631f
p2825
I4352
sV\u6a3d
p2826
I703
sV\u8bbc
p2827
I704
sV\u6cbe
p2828
I1969
sV\u9041
p2829
I705
sV\u8c21
p2830
I3712
sV\u5543
p2831
I706
sV\u72c2
p2832
I707
sV\u9645
p2833
I708
sV\u9b47
p2834
I3261
sV\u5c49
p2835
I3262
sV\u8bcd
p2836
I3510
sV\u814b
p2837
I3263
sV\u7eca
p2838
I709
sV\u624d
p2839
I4514
sV\u83cc
p2840
I1971
sV\u674f
p2841
I1972
sV\u64ce
p2842
I710
sV\u6851
p2843
I4515
sV\u89d0
p2844
I1973
sV\u6d53
p2845
I1974
sV\u7ea2
p2846
I3083
sV\u8fd4
p2847
I1975
sV\u7357
p2848
I711
sV\u7459
p2849
I3266
sV\u75d8
p2850
I1977
sV\u795b
p2851
I712
sV\u56da
p2852
I3267
sV\u9cde
p2853
I713
sV\u91d1
p2854
I2880
sV\u6563
p2855
I714
sV\u62e2
p2856
I4517
sV\u6b67
p2857
I715
sV\u573b
p2858
I4437
sV\u6c69
p2859
I3268
sV\u997d
p2860
I2671
sV\u516b
p2861
I3270
sV\u4eea
p2862
I3271
sV\u53ec
p2863
I1978
sV\u576f
p2864
I3272
sV\u94ee
p2865
I1979
sV\u9a9c
p2866
I4473
sV\u79f0
p2867
I716
sV\u5352
p2868
I4160
sV\u5c7f
p2869
I2672
sV\u8377
p2870
I717
sV\u80f6
p2871
I1980
sV\u6479
p2872
I1981
sV\u6845
p2873
I4440
sV\u8f7f
p2874
I718
sV\u6cfe
p2875
I3276
sV\u5200
p2876
I3277
sV\u9102
p2877
I3278
sV\u5404
p2878
I3279
sV\u9887
p2879
I1982
sV\u7b06
p2880
I1983
sV\u5f89
p2881
I1984
sV\u4e2d
p2882
I1822
sV\u828b
p2883
I1985
sV\u7d0a
p2884
I1986
sV\u4e24
p2885
I4740
sV\u800c
p2886
I719
sV\u9e43
p2887
I3609
sV\u6912
p2888
I1987
sV\u6d95
p2889
I720
sV\u6c14
p2890
I4521
sV\u7316
p2891
I721
sV\u7618
p2892
I3282
sV\u5a9b
p2893
I722
sV\u751a
p2894
I723
sV\u7c9f
p2895
I1989
sV\u7504
p2896
I4548
sV\u5cd9
p2897
I2298
sV\u86a3
p2898
I3285
sV\u65a5
p2899
I4524
sV\u8424
p2900
I1990
sV\u68a7
p2901
I1991
sV\u65b0
p2902
I4356
sV\u8fa9
p2903
I724
sV\u52ab
p2904
I1992
sV\u6d2a
p2905
I725
sV\u54af
p2906
I1993
sV\u7bb1
p2907
I3287
sV\u4e89
p2908
I1409
sV\u7eb3
p2909
I726
sV\u5c34
p2910
I727
sV\u8336
p2911
I728
sV\u8638
p2912
I3288
sV\u853a
p2913
I729
sV\u683c
p2914
I1994
sV\u6cbf
p2915
I730
sV\u63b4
p2916
I4358
sV\u53c1
p2917
I731
sV\u55c5
p2918
I732
sV\u7a23
p2919
I4395
sV\u82cb
p2920
I733
sV\u5d4a
p2921
I4527
sV\u7699
p2922
I4551
sV\u804c
p2923
I4528
sV\u874e
p2924
I1996
sV\u8bd1
p2925
I3290
sV\u8839
p2926
I4976
sV\u4ed3
p2927
I3291
sV\u558f
p2928
I3925
sV\u5356
p2929
I734
sV\u57d9
p2930
I1997
sV\u5658
p2931
I3292
sV\u960e
p2932
I2676
sV\u59dd
p2933
I1998
sV\u753b
p2934
I3086
sV\u7cdf
p2935
I3293
sV\u59b9
p2936
I4304
sV\u63e1
p2937
I735
sV\u9a91
p2938
I3926
sV\u6162
p2939
I1999
sV\u65e5
p2940
I736
sV\u6b66
p2941
I2000
sV\u4fe9
p2942
I2001
sV\u578b
p2943
I4100
sV\u6d6a
p2944
I2002
sV\u51ed
p2945
I3295
sV\u74ef
p2946
I2003
sV\u7bf1
p2947
I4532
sV\u9a70
p2948
I2004
sV\u7ef3
p2949
I2005
sV\u9972
p2950
I4533
sV\u533f
p2951
I4359
sV\u6376
p2952
I737
sV\u87f9
p2953
I738
sV\u8e1d
p2954
I2782
sV\u5f18
p2955
I4852
sV\u69fd
p2956
I4534
sV\u7280
p2957
I2006
sV\u9505
p2958
I2007
sV\u5484
p2959
I739
sV\u7f09
p2960
I3296
sV\u810d
p2961
I2008
sV\u808c
p2962
I3297
sV\u640f
p2963
I740
sV\u6a90
p2964
I2009
sV\u4e13
p2965
I2010
sV\u8c94
p2966
I3298
sV\u9017
p2967
I741
sV\u7396
p2968
I3299
sV\u5bfa
p2969
I4331
sV\u759a
p2970
I3300
sV\u789c
p2971
I742
sV\u7f9e
p2972
I3301
sV\u6321
p2973
I2011
sV\u62a0
p2974
I743
sV\u6525
p2975
I2012
sV\u64a4
p2976
I744
sV\u8ba6
p2977
I2013
sV\u6f29
p2978
I2014
sV\u4ea8
p2979
I2015
sV\u6346
p2980
I2961
sV\u6daa
p2981
I3302
sV\u90ac
p2982
I745
sV\u542f
p2983
I4539
sV\u57ae
p2984
I746
sV\u9ab0
p2985
I747
sV\u9e33
p2986
I2016
sV\u59b2
p2987
I748
sV\u8d9f
p2988
I2678
sV\u8037
p2989
I2017
sV\u8e1e
p2990
I3927
sV\u8d4b
p2991
I3718
sV\u8fbe
p2992
I3304
sV\u5341
p2993
I3305
sV\u62a1
p2994
I4553
sV\u7545
p2995
I4540
sV\u94c4
p2996
I2018
sV\u7bc6
p2997
I749
sV\u7ec8
p2998
I3306
sV\u624b
p2999
I2020
sV\u9976
p3000
I4162
sV\u80cc
p3001
I2021
sV\u5fcc
p3002
I4361
sV\u4e53
p3003
I750
sV\u5e93
p3004
I3891
sV\u9b4f
p3005
I3093
sV\u9057
p3006
I4543
sV\u93d6
p3007
I751
sV\u9759
p3008
I2022
sV\u76d8
p3009
I2023
sV\u98ce
p3010
I4362
sV\u795d
p3011
I3308
sV\u9f84
p3012
I3562
sV\u8361
p3013
I2024
sV\u8f7a
p3014
I4753
sV\u64e4
p3015
I2025
sV\u6867
p3016
I752
sV\u8be6
p3017
I753
sV\u8f69
p3018
I2026
sV\u4ee8
p3019
I754
sV\u8dea
p3020
I755
sV\u516d
p3021
I756
sV\u70ec
p3022
I757
sV\u77ee
p3023
I3310
sV\u5b71
p3024
I758
sV\u5192
p3025
I2975
sV\u9e73
p3026
I759
sV\u63f6
p3027
I3312
sV\u65fa
p3028
I3313
sV\u4ffe
p3029
I4545
sV\u7281
p3030
I760
sV\u5300
p3031
I3314
sV\u5783
p3032
I4546
sV\u9002
p3033
I3315
sV\u9504
p3034
I761
sV\u5987
p3035
I4549
sV\u5a06
p3036
I762
sV\u5f08
p3037
I3316
sV\u5c0a
p3038
I763
sV\u608d
p3039
I764
sV\u858f
p3040
I2029
sV\u660e
p3041
I2030
sV\u7410
p3042
I4301
sV\u8f93
p3043
I2031
sV\u85af
p3044
I3932
sV\u5197
p3045
I765
sV\u5ead
p3046
I4944
sV\u9699
p3047
I766
sV\u81a8
p3048
I4974
sV\u5b9b
p3049
I767
sV\u989d
p3050
I768
sV\u591c
p3051
I4552
sV\u5370
p3052
I4869
sV\u82a1
p3053
I769
sV\u6320
p3054
I3317
sV\u67a3
p3055
I2032
sV\u4ea9
p3056
I3318
sV\u73ab
p3057
I770
sV\u70ad
p3058
I3319
sV\u75af
p3059
I771
sV\u962e
p3060
I772
sV\u5509
p3061
I4756
sV\u73ed
p3062
I4466
sV\u5d34
p3063
I773
sV\u8236
p3064
I774
sV\u643a
p3065
I4554
sV\u6dbf
p3066
I775
sV\u4e3e
p3067
I3320
sV\u6c61
p3068
I3721
sV\u57c3
p3069
I3321
sV\u9042
p3070
I2033
sV\u94c5
p3071
I3322
sV\u5544
p3072
I2034
sV\u7a46
p3073
I3323
sV\u5ec9
p3074
I776
sV\u7236
p3075
I3933
sV\u653e
p3076
I4743
sV\u614c
p3077
I777
sV\u85cf
p3078
I778
sV\u864e
p3079
I2036
sV\u7ee2
p3080
I4366
sV\u6cd5
p3081
I2037
sV\u6d54
p3082
I779
sV\u5256
p3083
I780
sV\u745a
p3084
I2038
sV\u5d82
p3085
I3748
sV\u795c
p3086
I4560
sV\u9e5e
p3087
I3324
sV\u6062
p3088
I2039
sV\u65d6
p3089
I3999
sV\u6ee9
p3090
I781
sV\u8f68
p3091
I782
sV\u53eb
p3092
I783
sV\u6c6a
p3093
I2040
sV\u90ed
p3094
I784
sV\u916c
p3095
I2041
sV\u55ef
p3096
I785
sV\u5af1
p3097
I3328
sV\u6069
p3098
I3723
sV\u6392
p3099
I4759
sV\u6276
p3100
I786
sV\u86f9
p3101
I787
sV\u6715
p3102
I3522
sV\u8bfb
p3103
I3329
sV\u847a
p3104
I4566
sV\u6f3e
p3105
I4526
sV\u697c
p3106
I3330
sV\u6e7e
p3107
I788
sV\u5201
p3108
I4567
sV\u5703
p3109
I2043
sV\u9082
p3110
I789
sV\u7405
p3111
I3331
sV\u5584
p3112
I790
sV\u5907
p3113
I2044
sV\u9a86
p3114
I791
sV\u5f88
p3115
I792
sV\u5761
p3116
I4089
sV\u800d
p3117
I2045
sV\u6f13
p3118
I793
sV\u8892
p3119
I794
sV\u8c15
p3120
I2046
sV\u6d94
p3121
I2047
sV\u7619
p3122
I2048
sV\u9798
p3123
I4568
sV\u7b1b
p3124
I4569
sV\u949a
p3125
I2049
sV\u781d
p3126
I2050
sV\u701b
p3127
I4761
sV\u5e9e
p3128
I4571
sV\u63a0
p3129
I795
sV\u80a2
p3130
I2051
sV\u8425
p3131
I3335
sV\u65a4
p3132
I796
sV\u5374
p3133
I4962
sV\u6e29
p3134
I2052
sV\u4fa8
p3135
I2053
sV\u732b
p3136
I3337
sV\u6caa
p3137
I3338
sV\u502d
p3138
I2054
sV\u51ac
p3139
I3339
sV\u952f
p3140
I2055
sV\u76ae
p3141
I2056
sV\u5a31
p3142
I2057
sV\u7ec9
p3143
I2035
sV\u97a0
p3144
I4128
sV\u5609
p3145
I4872
sV\u561f
p3146
I3524
sV\u9119
p3147
I3370
sV\u67b8
p3148
I4576
sV\u64ba
p3149
I2058
sV\u683d
p3150
I797
sV\u8d3f
p3151
I2059
sV\u5241
p3152
I3342
sV\u73c0
p3153
I3343
sV\u70c2
p3154
I798
sV\u5947
p3155
I799
sV\u98a0
p3156
I4166
sV\u9e49
p3157
I800
sV\u8fe9
p3158
I4531
sV\u634b
p3159
I2060
sV\u7cca
p3160
I801
sV\u604d
p3161
I4577
sV\u654f
p3162
I2061
sV\u914c
p3163
I3935
sV\u827e
p3164
I5041
sV\u4f53
p3165
I802
sV\u68d2
p3166
I803
sV\u6c55
p3167
I4579
sV\u65cf
p3168
I4558
sV\u9157
p3169
I4580
sV\u5659
p3170
I4581
sV\u7f25
p3171
I1622
sV\u7b5b
p3172
I804
sV\u785d
p3173
I3344
sV\u59dc
p3174
I805
sV\u7ede
p3175
I4582
sV\u83e0
p3176
I3345
sV\u85e4
p3177
I3346
sV\u5b50
p3178
I1422
sV\u8e69
p3179
I2062
sV\u4fe8
p3180
I806
sV\u536b
p3181
I3347
sV\u6cea
p3182
I4583
sV\u706d
p3183
I2063
sV\u956f
p3184
I807
sV\u76fe
p3185
I3029
sV\u9a71
p3186
I3350
sV\u5bf0
p3187
I2064
sV\u5df4
p3188
I2065
sV\u6177
p3189
I4584
sV\u54a8
p3190
I1624
sV\u8679
p3191
I3351
sV\u9cd5
p3192
I2687
sV\u73f2
p3193
I3533
sV\u8d54
p3194
I4559
sV\u76cf
p3195
I3824
sV\u5f81
p3196
I2479
sV\u9083
p3197
I2066
sV\u5385
p3198
I2067
sV\u5e87
p3199
I4586
sV\u5d06
p3200
I808
sV\u848b
p3201
I2068
sV\u4e4e
p3202
I4859
sV\u878d
p3203
I4587
sV\u660c
p3204
I4588
sV\u8154
p3205
I5034
sV\u6aac
p3206
I4169
sV\u8c10
p3207
I809
sV\u6893
p3208
I3352
sV\u6e2f
p3209
I2890
sV\u5199
p3210
I3353
sV\u5018
p3211
I4591
sV\u5c9b
p3212
I810
sV\u6bdb
p3213
I2688
sV\u7a9f
p3214
I2069
sV\u65a1
p3215
I4593
sV\u9131
p3216
I4763
sV\u60a3
p3217
I2070
sV\u6fa7
p3218
I2113
sV\u63a5
p3219
I4595
sV\u4ea7
p3220
I811
sV\u8d26
p3221
I4596
sV\u54ab
p3222
I2072
sV\u9706
p3223
I3730
sV\u97ad
p3224
I2073
sV\u72af
p3225
I812
sV\u4e52
p3226
I4641
sV\u5389
p3227
I2480
sV\u78b3
p3228
I813
sV\u5bb5
p3229
I4598
sV\u5a34
p3230
I814
sV\u906d
p3231
I3348
sV\u6536
p3232
I4599
sV\u8038
p3233
I3354
sV\u6cbb
p3234
I815
sV\u633a
p3235
I4600
sV\u8fbd
p3236
I2074
sV\u66b4
p3237
I4171
sV\u5440
p3238
I2075
sV\u70c3
p3239
I4601
sV\u5742
p3240
I4602
sV\u7ec7
p3241
I4603
sV\u7360
p3242
I3938
sV\u79c9
p3243
I2076
sV\u9ed8
p3244
I3613
sV\u664c
p3245
I816
sV\u82cf
p3246
I817
sV\u614e
p3247
I3355
sV\u6dd1
p3248
I2077
sV\u6c50
p3249
I818
sV\u6bd5
p3250
I2078
sV\u94c6
p3251
I4979
sV\u76d7
p3252
I3358
sV\u5556
p3253
I819
sV\u84e5
p3254
I4561
sV\u832c
p3255
I2600
sV\u535a
p3256
I820
sV\u9e5c
p3257
I821
sV\u7adf
p3258
I3360
sV\u795e
p3259
I2079
sV\u9791
p3260
I4371
sV\u6d66
p3261
I2080
sV\u8868
p3262
I822
sV\u6b6a
p3263
I2081
sV\u97ed
p3264
I823
sV\u566c
p3265
I4606
sV\u716e
p3266
I824
sV\u5df1
p3267
I3362
sV\u9ee9
p3268
I3939
sV\u58f3
p3269
I825
sV\u7f72
p3270
I826
sV\u8398
p3271
I4127
sV\u9a74
p3272
I2083
sV\u9edd
p3273
I4642
sV\u6078
p3274
I3364
sV\u6cfb
p3275
I2084
sV\u637a
p3276
I827
sV\u8ffd
p3277
I828
sV\u8e7c
p3278
I2085
sV\u5014
p3279
I3107
sV\u9501
p3280
I2086
sV\u5480
p3281
I829
sV\u9003
p3282
I4610
sV\u8c6a
p3283
I3325
sV\u5305
p3284
I4611
sV\u7284
p3285
I2088
sV\u74e6
p3286
I4367
sV\u50ed
p3287
I3326
sV\u840b
p3288
I4612
sV\u870d
p3289
I2089
sV\u868c
p3290
I3368
sV\u620f
p3291
I830
sV\u516c
p3292
I4563
sV\u6c90
p3293
I2090
sV\u6813
p3294
I831
sV\u8bc2
p3295
I4173
sV\u95ef
p3296
I3327
sV\u7596
p3297
I3369
sV\u7119
p3298
I2091
sV\u539a
p3299
I4614
sV\u7f1d
p3300
I2092
sV\u5e9c
p3301
I2093
sV\u5a1f
p3302
I3371
sV\u7ec4
p3303
I3529
sV\u8521
p3304
I3372
sV\u67a2
p3305
I3373
sV\u6325
p3306
I2094
sV\u62a4
p3307
I832
sV\u4e27
p3308
I3374
sV\u6da6
p3309
I3375
sV\u68a8
p3310
I833
sV\u542b
p3311
I4616
sV\u8baa
p3312
I2095
sV\u572d
p3313
I2096
sV\u7fb2
p3314
I2097
sV\u60b8
p3315
I4618
sV\u63ba
p3316
I2098
sV\u4f3d
p3317
I2099
sV\u6d74
p3318
I2695
sV\u9541
p3319
I834
sV\u94c0
p3320
I2100
sV\u5043
p3321
I835
sV\u57c2
p3322
I2101
sV\u5345
p3323
I3377
sV\u72c4
p3324
I3378
sV\u5949
p3325
I3379
sV\u6d51
p3326
I4621
sV\u56f9
p3327
I2696
sV\u6853
p3328
I2102
sV\u6fd2
p3329
I836
sV\u5657
p3330
I2103
sV\u55d6
p3331
I3380
sV\u70d8
p3332
I2104
sV\u5f5d
p3333
I4622
sV\u7edc
p3334
I2105
sV\u6151
p3335
I4771
sV\u6063
p3336
I837
sV\u8365
p3337
I2106
sV\u74a7
p3338
I1834
sV\u6de6
p3339
I4623
sV\u88e8
p3340
I3382
sV\u946b
p3341
I838
sV\u526f
p3342
I3383
sV\u71ee
p3343
I3384
sV\u5cf0
p3344
I2107
sV\u5b75
p3345
I839
sV\u65f6
p3346
I3385
sV\u8179
p3347
I3386
sV\u80f8
p3348
I4625
sV\u4e7e
p3349
I2042
sV\u8f7d
p3350
I3387
sV\u8eab
p3351
I4377
sV\u76d4
p3352
I2898
sV\u9500
p3353
I840
sV\u9602
p3354
I3388
sV\u9f87
p3355
I2109
sV\u5c06
p3356
I841
sV\u7889
p3357
I842
sV\u9ee5
p3358
I4193
sV\u658b
p3359
I3389
sV\u8703
p3360
I3943
sV\u638f
p3361
I3390
sV\u600e
p3362
I2111
sV\u7099
p3363
I4628
sV\u7118
p3364
I3391
sV\u521a
p3365
I2112
sV\u9e9d
p3366
I843
sV\u7f1c
p3367
I3392
sV\u86ca
p3368
I4204
sV\u82a5
p3369
I844
sV\u6324
p3370
I3393
sV\u4fa7
p3371
I845
sV\u6c26
p3372
I846
sV\u75ab
p3373
I847
sV\u6a2a
p3374
I848
sV\u964c
p3375
I3976
sV\u73af
p3376
I849
sV\u902e
p3377
I850
sV\u7cb1
p3378
I3394
sV\u4e09
p3379
I3944
sV\u7532
p3380
I4994
sV\u5b34
p3381
I851
sV\u67b7
p3382
I852
sV\u6f88
p3383
I1432
sV\u4fe1
p3384
I2494
sV\u75de
p3385
I4774
sV\u9535
p3386
I4844
sV\u4f3c
p3387
I853
sV\u6bbf
p3388
I854
sV\u683e
p3389
I4633
sV\u54c1
p3390
I855
sV\u9540
p3391
I4634
sV\u71c3
p3392
I4635
sV\u9642
p3393
I2114
sV\u7948
p3394
I856
sV\u65cb
p3395
I4636
sV\u5a4a
p3396
I4637
sV\u874c
p3397
I4638
sV\u83cf
p3398
I857
sV\u8d50
p3399
I4640
sV\u8e52
p3400
I2116
sV\u950f
p3401
I3946
sV\u77d7
p3402
I3397
sV\u70d9
p3403
I858
sV\u768e
p3404
I3947
sV\u7edd
p3405
I859
sV\u3002
p3406
I4547
sV\u585e
p3407
I860
sV\u81e3
p3408
I2117
sV\u793a
p3409
I4380
sV\u62e5
p3410
I861
sV\u8364
p3411
I862
sV\u6ed5
p3412
I1956
sV\u55bd
p3413
I4381
sV\u75eb
p3414
I2118
sV\u56ed
p3415
I3399
sV\u5f13
p3416
I1436
sV\u53ef
p3417
I863
sV\u743c
p3418
I1837
sV\u5e72
p3419
I2119
sV\u94e8
p3420
I2901
sV\u60f9
p3421
I4646
sV\u5c15
p3422
I3950
sV\u6dfb
p3423
I2120
sV\u733e
p3424
I4382
sV\u4efd
p3425
I3402
sV\u8f7c
p3426
I2121
sV\u8bff
p3427
I3404
sV\u59a5
p3428
I3110
sV\u5401
p3429
I4649
sV\u5580
p3430
I864
sV\u7682
p3431
I4650
sV\u5384
p3432
I865
sV\u7f07
p3433
I866
sV\u5988
p3434
I867
sV\u9a8a
p3435
I868
sV\u830f
p3436
I4651
sV\u75c5
p3437
I1995
sV\u9619
p3438
I3334
sV\u8913
p3439
I4652
sV\u4e92
p3440
I3407
sV\u607f
p3441
I5021
sV\u54ee
p3442
I4518
sV\u5019
p3443
I869
sV\u5d1b
p3444
I3408
sV\u5e1d
p3445
I870
sV\u5f9c
p3446
I2124
sV\u9b1f
p3447
I871
sV\u589e
p3448
I4654
sV\u6421
p3449
I2125
sV\u9171
p3450
I3531
sV\u6123
p3451
I4655
sV\u549a
p3452
I4570
sV\u6292
p3453
I4804
sV\u6ca6
p3454
I3409
sV\u6829
p3455
I2126
sV\u69a8
p3456
I872
sV\u752b
p3457
I3410
sV\u562d
p3458
I2127
sV\u77ac
p3459
I4656
sV\u70ae
p3460
I2128
sV\u5c31
p3461
I2129
sV\u73c9
p3462
I2488
sV\u7eb2
p3463
I2130
sV\u5bb4
p3464
I3412
sV\u8737
p3465
I2131
sV\u817a
p3466
I4678
sV\u8d3b
p3467
I2132
sV\u4e3d
p3468
I2133
sV\u6ecb
p3469
I4997
sV\u8654
p3470
I4748
sV\u56f4
p3471
I2282
sV\u5143
p3472
I873
sV\u76c2
p3473
I874
sV\u7bc7
p3474
I4500
sV\u5a77
p3475
I2904
sV\u5b99
p3476
I3733
sV\u83a0
p3477
I4572
sV\u634f
p3478
I2134
sV\u80ce
p3479
I4658
sV\u8fd8
p3480
I3025
sV\u6bd4
p3481
I3415
sV\u5757
p3482
I2135
sV\u94d6
p3483
I875
sV\u5b5f
p3484
I2136
sV\u98de
p3485
I876
sV\u8461
p3486
I2137
sV\u65e0
p3487
I2138
sV\u8f67
p3488
I4659
sV\u9650
p3489
I4383
sV\u8869
p3490
I2139
sV\u97ec
p3491
I4660
sV\u536f
p3492
I3417
sV\u5c71
p3493
I877
sV\u8e29
p3494
I3336
sV\u5973
p3495
I3418
sV\u5a75
p3496
I878
sV\u6777
p3497
I4661
sV\u8fa8
p3498
I4573
sV\u6079
p3499
I2140
sV\u9a81
p3500
I4848
sV\u632b
p3501
I2706
sV\u9600
p3502
I879
sV\u9502
p3503
I3420
sV\u5185
p3504
I2141
sV\u9004
p3505
I880
sV\u9c87
p3506
I2142
sV\u7f06
p3507
I2143
sV\u5b89
p3508
I2144
sV\u840c
p3509
I881
sV\u630e
p3510
I2145
sV\u4f91
p3511
I2146
sV\u4e10
p3512
I3422
sV\u8a93
p3513
I2147
sV\u6d12
p3514
I2148
sV\u6995
p3515
I882
sV\u752f
p3516
I3340
sV\u9497
p3517
I3423
sV\u4fea
p3518
I3226
sV\u8e85
p3519
I4182
sV\u711a
p3520
I883
sV\u56db
p3521
I5002
sV\u589f
p3522
I884
sV\u7b1e
p3523
I885
sV\u51c4
p3524
I4722
sV\u6620
p3525
I3424
sV\u795a
p3526
I2492
sV\u6ca7
p3527
I2150
sV\u4f26
p3528
I2151
sV\u8ba9
p3529
I886
sV\u6a28
p3530
I3425
sV\u8006
p3531
I2907
sV\u542c
p3532
I887
sV\u70af
p3533
I888
sV\u532e
p3534
I3426
sV\u5ab3
p3535
I2153
sV\u95f0
p3536
I4985
sV\u7834
p3537
I2154
sV\u64b7
p3538
I889
sV\u83b9
p3539
I2155
sV\u8238
p3540
I3427
sV\u8e2a
p3541
I4495
sV\u835e
p3542
I3122
sV\u7455
p3543
I4291
sV\u6b3e
p3544
I4670
sV\u5fe1
p3545
I1846
sV\u52c3
p3546
I3428
sV\u9542
p3547
I2156
sV\u4e60
p3548
I3746
sV\u86cb
p3549
I890
sV\u538b
p3550
I3924
sV\u5ae3
p3551
I4386
sV\u634e
p3552
I3429
sV\u4fd1
p3553
I891
sV\u4e50
p3554
I2158
sV\u6d52
p3555
I3431
sV\u6854
p3556
I892
sV\u54d7
p3557
I4673
sV\u9756
p3558
I3432
sV\u53d9
p3559
I2159
sV\u9edb
p3560
I2160
sV\u515a
p3561
I893
sV\u5ddd
p3562
I2161
sV\u98df
p3563
I2162
sV\u82e3
p3564
I2163
sV\u6562
p3565
I2164
sV\u54e7
p3566
I4387
sV\u6f66
p3567
I2165
sV\u9716
p3568
I4665
sV\u6377
p3569
I4519
sV\u56eb
p3570
I894
sV\u7766
p3571
I1849
sV\u95ed
p3572
I895
sV\u70ef
p3573
I2166
sV\u5ff1
p3574
I3437
sV\u53e9
p3575
I1850
sV\u8212
p3576
I3539
sV\u80eb
p3577
I2575
sV\u8776
p3578
I4677
sV\u4efb
p3579
I896
sV\u7ebe
p3580
I1445
sV\u5b51
p3581
I2662
sV\u9701
p3582
I2168
sV\u62f1
p3583
I4272
sV\u5203
p3584
I2169
sV\u5582
p3585
I3439
sV\u6db8
p3586
I4811
sV\u7b97
p3587
I2284
sV\u7c07
p3588
I897
sV\u5b09
p3589
I4679
sV\u7a88
p3590
I2170
sV\u598a
p3591
I3440
sV\u600f
p3592
I898
sV\u838e
p3593
I899
sV\u4f11
p3594
I4680
sV\u6e90
p3595
I2171
sV\u5417
p3596
I3441
sV\u5319
p3597
I900
sV\u5e1b
p3598
I3442
sV\u919a
p3599
I2172
sV\u7c9c
p3600
I901
sV\u5b9e
p3601
I4682
sV\u8721
p3602
I3443
sV\u755c
p3603
I5036
sV\u4e1a
p3604
I1639
sV\u80a4
p3605
I4683
sV\u8c27
p3606
I902
sV\u4fa6
p3607
I4685
sV\u762b
p3608
I3444
sV\u752d
p3609
I903
sV\u54ac
p3610
I3445
sV\u53ae
p3611
I904
sV\u5f31
p3612
I2175
sV\u4e49
p3613
I2711
sV\u7a33
p3614
I3446
sV\u78b4
p3615
I4688
sV\u67b6
p3616
I2176
sV\u6339
p3617
I905
sV\u82b8
p3618
I906
sV\u4e3b
p3619
I4690
sV\u541e
p3620
I2287
sV\u6d3d
p3621
I907
sV\u6cbc
p3622
I4691
sV\u8bbe
p3623
I3448
sV\u7741
p3624
I4692
sV\u96c0
p3625
I2177
sV\u5243
p3626
I908
sV\u75c2
p3627
I909
sV\u5145
p3628
I3449
sV\u5fc6
p3629
I2178
sV\u9b49
p3630
I910
sV\u664b
p3631
I2179
sV\u59ca
p3632
I2180
sV\u8da3
p3633
I3544
sV\u773a
p3634
I3822
sV\u51cc
p3635
I3953
sV\u4f51
p3636
I3450
sV\u88d4
p3637
I2181
sV\u5457
p3638
I2182
sV\u52d8
p3639
I911
sV\u86ce
p3640
I4578
sV\u7cdc
p3641
I2183
sV\u5bde
p3642
I3451
sV\u6761
p3643
I3452
sV\u6263
p3644
I912
sV\u997a
p3645
I4390
sV\u8165
p3646
I2184
sV\u80e4
p3647
I3453
sV\u8fe6
p3648
I913
sV\u55fd
p3649
I3127
sV\u766b
p3650
I4695
sV\u8026
p3651
I4789
sV\u956d
p3652
I3454
sV\u94ec
p3653
I4696
sV\u706f
p3654
I4697
sV\u53ee
p3655
I4698
sV\u5f71
p3656
I914
sV\u7ef0
p3657
I915
sV\u9a73
p3658
I916
sV\u98d2
p3659
I3955
sV\u9975
p3660
I3455
sV\u90eb
p3661
I3194
sV\u7528
p3662
I2911
sV\u4f7c
p3663
I4648
sV\u6cfc
p3664
I917
sV\u8bfe
p3665
I2185
sV\u9700
p3666
I918
sV\u962a
p3667
I4187
sV\u7085
p3668
I919
sV\u7c27
p3669
I4078
sV\u5e06
p3670
I920
sV\u7b08
p3671
I4700
sV\u818f
p3672
I2188
sV\u620e
p3673
I2189
sV\u4e91
p3674
I2190
sV\u4f10
p3675
I3456
sV\u6b93
p3676
I3457
sV\u8c12
p3677
I3458
sV\u7597
p3678
I2191
sV\u9616
p3679
I4701
sV\u9f9b
p3680
I3459
sV\u701a
p3681
I921
sV\u7a1e
p3682
I922
sV\u63a3
p3683
I2193
sV\u80a5
p3684
I923
sV\u6124
p3685
I3460
sV\u6da7
p3686
I2194
sV\u57ab
p3687
I2195
sV\u682a
p3688
I924
sV\u6760
p3689
I4707
sV\u552c
p3690
I925
sV\u51af
p3691
I2197
sV\u522e
p3692
I3461
sV\u7eb1
p3693
I3462
sV\u7f30
p3694
I2198
sV\u5bb3
p3695
I2199
sV\u5934
p3696
I926
sV\u6636
p3697
I4703
sV\u82b9
p3698
I2201
sV\u8338
p3699
I3464
sV\u6cbd
p3700
I3465
sV\u6d3c
p3701
I2202
sV\u8a3e
p3702
I927
sV\u96c1
p3703
I3467
sV\u7740
p3704
I928
sV\u90c5
p3705
I3468
sV\u5144
p3706
I2204
sV\u73e0
p3707
I1451
sV\u5ac9
p3708
I929
sV\u87cb
p3709
I930
sV\u5996
p3710
I4760
sV\u64cd
p3711
I2205
sV\u654c
p3712
I931
sV\u4f8d
p3713
I2403
sV\u624e
p3714
I3469
sV\u4ed1
p3715
I932
sV\u4f50
p3716
I2207
sV\u6bd3
p3717
I4705
sV\u68d5
p3718
I2208
sV\u6954
p3719
I933
sV\u7656
p3720
I2209
sV\u72d9
p3721
I934
sV\u505a
p3722
I935
sV\u9cdd
p3723
I4706
sV\u79df
p3724
I3471
sV\u75e4
p3725
I1452
sV\u8760
p3726
I936
sV\u63e3
p3727
I3472
sV\u6e3a
p3728
I4792
sV\u80e5
p3729
I4708
sV\u4e66
p3730
I937
sV\u62bd
p3731
I3549
sV\u77eb
p3732
I2210
sV\u5ae6
p3733
I2714
sV\u94ed
p3734
I938
sV\u556c
p3735
I4709
sV\u51ef
p3736
I939
sV\u5f70
p3737
I4710
sV\u9974
p3738
I2211
sV\u65f7
p3739
I2212
sV\u6676
p3740
I940
sV\u82f9
p3741
I941
sV\u621b
p3742
I4237
sV\u607a
p3743
I942
sV\u7b51
p3744
I3916
sV\u69ff
p3745
I2213
sV\u9601
p3746
I2214
sV\u78c1
p3747
I2295
sV\u5482
p3748
I3476
sV\u3005
p3749
I943
sV\u7184
p3750
I2216
sV\u5d07
p3751
I2217
sV\u5e86
p3752
I3477
sV\u5a09
p3753
I4713
sV\u5b88
p3754
I944
sV\u670b
p3755
I945
sV\u988a
p3756
I946
sV\u840d
p3757
I2218
sV\u658c
p3758
I2219
sV\u610f
p3759
I947
sV\u4e11
p3760
I4715
sV\u8f90
p3761
I3478
sV\u8815
p3762
I2220
sV\u6994
p3763
I2221
sV\u9517
p3764
I948
sV\u7696
p3765
I3479
sV\u5219
p3766
I949
sV\u5398
p3767
I2222
sV\u5f1b
p3768
I3480
sV\u76ee
p3769
I3349
sV\u5c1d
p3770
I950
sV\u591f
p3771
I3481
sV\u9a9e
p3772
I2223
sV\u6323
p3773
I4716
sV\u6025
p3774
I2224
sV\u8d27
p3775
I951
sV\u4ea6
p3776
I4717
sV\u8ba8
p3777
I4718
sV\u542d
p3778
I2225
sV\u712f
p3779
I3482
sV\u92ae
p3780
I3483
sV\u94c9
p3781
I3550
sV\u7cb2
p3782
I2226
sV\u5835
p3783
I2227
sV\u501f
p3784
I3753
sV\u8537
p3785
I2228
sV\u5174
p3786
I5039
sV\u8239
p3787
I4719
sV\u63b8
p3788
I4720
sV\u80ba
p3789
I3485
sV\u891a
p3790
I4372
sV\u79cb
p3791
I4189
sV\u693f
p3792
I3486
sV\u5343
p3793
I952
sV\u94c2
p3794
I4721
sV\u5177
p3795
I2717
sV\u5d47
p3796
I953
sV\u7ec6
p3797
I954
sV\u5a49
p3798
I3487
sV\u78ca
p3799
I955
sV\u65cc
p3800
I3488
sV\u62ce
p3801
I956
sV\u8e51
p3802
I957
sV\u8fd0
p3803
I2229
sV\u76d6
p3804
I4725
sV\u7259
p3805
I3489
sV\u53d8
p3806
I958
sV\u9a76
p3807
I4273
sV\u50da
p3808
I3490
sV\u6b7b
p3809
I4585
sV\u795f
p3810
I959
sV\u7ade
p3811
I4726
sV\u67e0
p3812
I2230
sV\u6363
p3813
I960
sV\u54fa
p3814
I3960
sV\u8d3c
p3815
I3466
sV\u8d67
p3816
I4729
sV\u6ee6
p3817
I4730
sV\u8f84
p3818
I2930
sV\u8be8
p3819
I3492
sV\u776b
p3820
I4731
sV\u57a6
p3821
I4397
sV\u916f
p3822
I961
sV\u72ee
p3823
I3493
sV\u7ff0
p3824
I962
sV\u5b73
p3825
I3494
sV\u5e18
p3826
I4822
sV\u9875
p3827
I3495
sV\u6577
p3828
I4732
sV\u7ecf
p3829
I4158
sV\u6279
p3830
I2231
sV\u5cb8
p3831
I2893
sV\u8f7b
p3832
I963
sV\u80fa
p3833
I2232
sV\u6c7d
p3834
I2233
sV\u6dfc
p3835
I964
sV\u897f
p3836
I965
sV\u7981
p3837
I966
sV\u7800
p3838
I4734
sV\u5f85
p3839
I2234
sV\u6bd7
p3840
I2924
sV\u5106
p3841
I967
sV\u5589
p3842
I2235
sV\u5408
p3843
I3498
sV\u888b
p3844
I2236
sV\u8e8f
p3845
I2237
sV\u8191
p3846
I4737
sV\u8010
p3847
I968
sV\u6795
p3848
I969
sV\u6614
p3849
I4738
sV\u7a97
p3850
I2238
sV\u5916
p3851
I2239
sV\u5d99
p3852
I3501
sV\u5c18
p3853
I4739
sV\u909b
p3854
I3502
sV\u7f1a
p3855
I970
sV\u6ca3
p3856
I2240
sV\u6b22
p3857
I971
sV\u4fa5
p3858
I3503
sV\u6e24
p3859
I3504
sV\u6349
p3860
I4404
sV\u65a9
p3861
I4741
sV\u8428
p3862
I2241
sV\u672a
p3863
I972
sV\u7bad
p3864
I3505
sV\u7eaf
p3865
I973
sV\u5d2e
p3866
I3506
sV\u54b3
p3867
I2242
sV\u5237
p3868
I3841
sV\u5634
p3869
I974
sV\u8936
p3870
I975
sV\u6c38
p3871
I2244
sV\u60bb
p3872
I976
sV\u4f3a
p3873
I3508
sV\u83bd
p3874
I2245
sV\u548b
p3875
I3964
sV\u60b4
p3876
I4400
sV\u79c1
p3877
I2246
sV\u7840
p3878
I977
sV\u9b42
p3879
I2247
sV\u5fc5
p3880
I978
sV\u5e44
p3881
I2249
sV\u52c7
p3882
I3509
sV\u7960
p3883
I4192
sV\u75c9
p3884
I2250
sV\u5448
p3885
I2251
sV\u68cb
p3886
I4746
sV\u574a
p3887
I4747
sV\u6bcd
p3888
I2252
sV\u9e9f
p3889
I3184
sV\u8d4e
p3890
I2253
sV\u61d1
p3891
I2254
sV\u6050
p3892
I979
sV\u84d3
p3893
I980
sV\u8352
p3894
I2255
sV\u6654
p3895
I981
sV\u6960
p3896
I4796
sV\u5956
p3897
I982
sV\u4ee5
p3898
I2300
sV\u70db
p3899
I3512
sV\u7f5a
p3900
I2257
sV\u7edb
p3901
I3433
sV\u563b
p3902
I4401
sV\u76df
p3903
I3513
sV\u6ce3
p3904
I3514
sV\u6b62
p3905
I2258
sV\u8fe5
p3906
I4750
sV\u62e7
p3907
I3515
sV\u6c10
p3908
I4589
sV\u65e9
p3909
I983
sV\u58eb
p3910
I984
sV\u9a6c
p3911
I2259
sV\u7eef
p3912
I2260
sV\u7d6e
p3913
I985
sV\u7070
p3914
I3517
sV\u97f5
p3915
I986
sV\u6df9
p3916
I4752
sV\u5b95
p3917
I1460
sV\u6f7a
p3918
I987
sV\u83fd
p3919
I988
sV\u627c
p3920
I3518
sV\u66ff
p3921
I2261
sV\u857e
p3922
I4755
sV\u7901
p3923
I3519
sV\u966a
p3924
I2927
sV\u7f05
p3925
I3520
sV\u5e84
p3926
I989
sV\u5207
p3927
I2262
sV\u9509
p3928
I2263
sV\u9488
p3929
I3521
sV\u680b
p3930
I990
sV\u8e0f
p3931
I4757
sV\u6d8e
p3932
I4758
sV\u8111
p3933
I2264
sV\u7199
p3934
I4590
sV\u6413
p3935
I991
sV\u8392
p3936
I992
sV\u8715
p3937
I2265
sV\u6fef
p3938
I1651
sV\u9996
p3939
I2266
sV\u7c98
p3940
I993
sV\u901b
p3941
I994
sV\u9f9a
p3942
I2267
sV\u531d
p3943
I995
sV\u961f
p3944
I996
sV\u8c23
p3945
I997
sV\u8ba2
p3946
I2269
sV\u4ea4
p3947
I2270
sV\u81a6
p3948
I2271
sV\u568f
p3949
I3810
sV\u67aa
p3950
I3525
sV\u9e2f
p3951
I2272
sV\u5e1c
p3952
I4592
sV\u7131
p3953
I998
sV\u90b0
p3954
I999
sV\u7433
p3955
I3526
sV\u73b2
p3956
I2273
sV\u6d39
p3957
I1000
sV\u6cb8
p3958
I4765
sV\u803b
p3959
I2274
sV\u633d
p3960
I1001
sV\u8e4b
p3961
I3758
sV\u5941
p3962
I3528
sV\u6446
p3963
I3068
sV\u5bc2
p3964
I2275
sV\u7f45
p3965
I4768
sV\u9ec4
p3966
I2276
sV\u7247
p3967
I2277
sV\u51c6
p3968
I2278
sV\u9549
p3969
I1002
sV\u54c8
p3970
I4769
sV\u90a3
p3971
I2723
sV\u4e4f
p3972
I1003
sV\u8dce
p3973
I4770
sV\u8151
p3974
I1004
sV\u63d2
p3975
I1005
sV\u86d4
p3976
I2279
sV\u7a57
p3977
I1006
sV\u905b
p3978
I4772
sV\u965f
p3979
I4773
sV\u811a
p3980
I4059
sV\u68e0
p3981
I2280
sV\u8be2
p3982
I1007
sV\u4ee4
p3983
I1008
sV\u6267
p3984
I1009
sV\u61e6
p3985
I4775
sV\u586b
p3986
I3530
sV\u5c4a
p3987
I4556
sV\u5dee
p3988
I4777
sV\u5171
p3989
I1010
sV\u5473
p3990
I3532
sV\u55d2
p3991
I1862
sV\u76f4
p3992
I1011
sV\u9f8c
p3993
I3081
sV\u6cf8
p3994
I1012
sV\u607b
p3995
I4779
sV\u4ffa
p3996
I4780
sV\u62fc
p3997
I1013
sV\u9881
p3998
I4781
sV\u5f04
p3999
I3534
sV\u7387
p4000
I3535
sV\u9006
p4001
I3536
sV\u9489
p4002
I4783
sV\u9508
p4003
I1014
sV\u7cd7
p4004
I3742
sV\u4f8f
p4005
I4784
sV\u8c0e
p4006
I3537
sV\u8110
p4007
I1015
sV\u6593
p4008
I3538
sV\u6212
p4009
I2283
sV\u8695
p4010
I4785
sV\u6714
p4011
I4786
sV\u5b97
p4012
I1016
sV\u7816
p4013
I1017
sV\u5c99
p4014
I3540
sV\u987e
p4015
I4032
sV\u519b
p4016
I1018
sV\u5e1a
p4017
I2285
sV\u529d
p4018
I3542
sV\u731c
p4019
I3543
sV\u779f
p4020
I2286
sV\u6f84
p4021
I1657
sV\u5733
p4022
I4880
sV\u6da3
p4023
I2288
sV\u4ea5
p4024
I3545
sV\u4f24
p4025
I4788
sV\u63a7
p4026
I2289
sV\u6026
p4027
I1019
sV\u892a
p4028
I4667
sV\u5320
p4029
I3928
sV\u7b2c
p4030
I2290
sV\u7faf
p4031
I1020
sV\u94dc
p4032
I3763
sV\u90b1
p4033
I2291
sV\u7130
p4034
I2292
sV\u55b3
p4035
I2293
sV\u6bb7
p4036
I1021
sV\u6cb9
p4037
I3546
sV\u8d38
p4038
I3547
sV\u4e3a
p4039
I3548
sV\u82bd
p4040
I2294
sV\u58c1
p4041
I1022
sV\u7940
p4042
I1023
sV\u7ec5
p4043
I2296
sV\u7f44
p4044
I1024
sV\u54c9
p4045
I1025
sV\u7548
p4046
I1026
sV\u5272
p4047
I2302
sV\u6b4c
p4048
I1027
sV\u4fcf
p4049
I3551
sV\u60d1
p4050
I2297
sV\u8150
p4051
I4793
sV\u6252
p4052
I3552
sV\u4f0f
p4053
I2307
sV\u7cd9
p4054
I1028
sV\u7965
p4055
I3144
sV\u51db
p4056
I4794
sV\u535c
p4057
I3554
sV\u57df
p4058
I4795
sV\u745e
p4059
I2299
sV\u8881
p4060
I4181
sV\u7011
p4061
I2932
sV\u5524
p4062
I3930
sV\u6ee5
p4063
I1029
sV\u4f64
p4064
I3555
sV\u8568
p4065
I1030
sV\u7aed
p4066
I4797
sV\u5b6c
p4067
I4798
sV\u9170
p4068
I2301
sV\u7272
p4069
I1031
sV\u56f5
p4070
I3556
sV\u9774
p4071
I2303
sV\u8bf7
p4072
I3557
sV\u6876
p4073
I1032
sV\u82cd
p4074
I3245
sV\u6d78
p4075
I3558
sV\u81fb
p4076
I3559
sV\u793e
p4077
I3974
sV\u62fd
p4078
I4800
sV\u837c
p4079
I2304
sV\u67ff
p4080
I2305
sV\u7801
p4081
I3560
sV\u7980
p4082
I2306
sV\u9a82
p4083
I1033
sV\u5e05
p4084
I4801
sV\u5f84
p4085
I1034
sV\u7409
p4086
I3563
sV\u6f0f
p4087
I1035
sV\u8c19
p4088
I2934
sV\u8513
p4089
I4803
sV\u8292
p4090
I1036
sV\u6615
p4091
I3564
sV\u9a79
p4092
I3177
sV\u5b17
p4093
I3565
sV\u9896
p4094
I2308
sV\u5e9a
p4095
I4805
sV\u521d
p4096
I1037
sV\u571f
p4097
I3566
sV\u949e
p4098
I2309
sV\u6821
p4099
I2310
sV\u8d23
p4100
I1038
sV\u4e9a
p4101
I4198
sV\u4e25
p4102
I1039
sV\u6ec7
p4103
I3975
sV\u8327
p4104
I1040
sV\u60a6
p4105
I3569
sV\u592b
p4106
I4807
sV\u86aa
p4107
I2312
sV\u7530
p4108
I2452
sV\u5f2f
p4109
I4808
sV\u7cae
p4110
I2313
sV\u51b0
p4111
I3570
sV\u7533
p4112
I3571
sV\u52b2
p4113
I1041
sV\u9635
p4114
I4810
sV\u671f
p4115
I4199
sV\u8db8
p4116
I1042
sV\u4eba
p4117
I1043
sV\u873f
p4118
I2315
sV\u80f4
p4119
I4410
sV\u8821
p4120
I3568
sV\u5ac2
p4121
I2316
sV\u9e45
p4122
I1044
sV\u5347
p4123
I1045
sV\u8bd9
p4124
I4384
sV\u76ca
p4125
I1046
sV\u4f4f
p4126
I1047
sV\u564c
p4127
I1469
sV\u62d2
p4128
I1048
sV\u6655
p4129
I4813
sV\u67d4
p4130
I3575
sV\u5b57
p4131
I2318
sV\u6e25
p4132
I2311
sV\u7eda
p4133
I4814
sV\u575f
p4134
I2319
sV\u8861
p4135
I2320
sV\u8dd1
p4136
I3356
sV\u6d63
p4137
I1049
sV\u8fe4
p4138
I3576
sV\u6367
p4139
I1050
sV\u60e6
p4140
I4817
sV\u8469
p4141
I2321
sV\u65e8
p4142
I2322
sV\u8bf4
p4143
I4055
sV\u9a6d
p4144
I3578
sV\u51f0
p4145
I2323
sV\u9573
p4146
I1051
sV\u5f52
p4147
I3977
sV\u9675
p4148
I3579
sV\u507f
p4149
I3145
sV\u6c79
p4150
I2324
sV\u8bd5
p4151
I3357
sV\u817b
p4152
I1052
sV\u677f
p4153
I4818
sV\u5b81
p4154
I2325
sV\u7a00
p4155
I4819
sV\u72f1
p4156
I4868
sV\u5c04
p4157
I3581
sV\u5306
p4158
I1053
sV\u9608
p4159
I1054
sV\u9556
p4160
I3359
sV\u771f
p4161
I4806
sV\u6c8f
p4162
I3583
sV\u4f0e
p4163
I1055
sV\u6210
p4164
I4820
sV\u8693
p4165
I2326
sV\u8a79
p4166
I3806
sV\u7897
p4167
I2327
sV\u9f99
p4168
I1056
sV\u8885
p4169
I4414
sV\u529b
p4170
I1057
sV\u7f00
p4171
I5022
sV\u501c
p4172
I4823
sV\u949f
p4173
I3586
sV\u971e
p4174
I4824
sV\u8ba1
p4175
I1058
sV\u835a
p4176
I2739
sV\u8c24
p4177
I2328
sV\u6628
p4178
I3588
sV\u5533
p4179
I4809
sV\u7f2e
p4180
I4826
sV\u901e
p4181
I4939
sV\u5230
p4182
I1059
sV\u949c
p4183
I5008
sV\u75b5
p4184
I3589
sV\u5434
p4185
I1060
sV\u6308
p4186
I4415
sV\u8fb9
p4187
I2330
sV\u4e38
p4188
I1061
sV\u8d3a
p4189
I1062
sV\u5f8b
p4190
I4416
sV\u84bf
p4191
I4828
sV\u5a40
p4192
I2332
sV\u4fd0
p4193
I4724
sV\u5baa
p4194
I3991
sV\u5dc5
p4195
I1063
sV\u8fc2
p4196
I4325
sV\u7941
p4197
I4767
sV\u9648
p4198
I4831
sV\u954a
p4199
I2333
sV\u684c
p4200
I1064
sV\u4f4e
p4201
I4834
sV\u9762
p4202
I2740
sV\u85d5
p4203
I3590
sV\u6454
p4204
I1065
sV\u7b56
p4205
I2334
sV\u5fd9
p4206
I2335
sV\u51dd
p4207
I2336
sV\u505c
p4208
I3591
sV\u54df
p4209
I4835
sV\u575e
p4210
I1066
sV\u6be1
p4211
I1067
sV\u4ee3
p4212
I4837
sV\u6eba
p4213
I2314
sV\u6c64
p4214
I4838
sV\u80e7
p4215
I2337
sV\u67e9
p4216
I1068
sV\u523d
p4217
I1666
sV\u8d66
p4218
I3361
sV\u786c
p4219
I3594
sV\u7cef
p4220
I2338
sV\u7f6e
p4221
I1069
sV\u53f1
p4222
I3595
sV\u96f3
p4223
I3596
sV\u7172
p4224
I1070
sV\u95f5
p4225
I1071
sV\u9885
p4226
I5024
sV\u5ef6
p4227
I4448
sV\u8ff9
p4228
I1072
sV\u9095
p4229
I4418
sV\u607c
p4230
I3597
sV\u677e
p4231
I1073
sV\u5e03
p4232
I2339
sV\u5982
p4233
I3598
sV\u79c0
p4234
I3573
sV\u9709
p4235
I2340
sV\u7688
p4236
I2341
sV\u558a
p4237
I3601
sV\u690d
p4238
I3602
sV\u8d43
p4239
I2939
sV\u6c0f
p4240
I1074
sV\u8f8e
p4241
I1075
sV\u6311
p4242
I3603
sV\u6613
p4243
I1076
sV\u82ef
p4244
I2742
sV\u7f19
p4245
I2342
sV\u5e45
p4246
I3574
sV\u521b
p4247
I3604
sV\u516e
p4248
I2082
sV\u6dcb
p4249
I4950
sV\u709c
p4250
I1077
sV\u541f
p4251
I3605
sV\u4fc4
p4252
I4202
sV\u6b21
p4253
I2343
sV\u6e23
p4254
I4842
sV\u6d25
p4255
I2344
sV\u6027
p4256
I4843
sV\u7949
p4257
I4620
sV\u66a8
p4258
I1078
sV\u85aa
p4259
I2345
sV\u592d
p4260
I2346
sV\u5fae
p4261
I1079
sV\u9633
p4262
I2347
sV\u51b2
p4263
I1080
sV\u7535
p4264
I1081
sV\u8d22
p4265
I4992
sV\u6837
p4266
I3607
sV\u8bb6
p4267
I3608
sV\u4f83
p4268
I4254
sV\u7a74
p4269
I3363
sV\u9b41
p4270
I1082
sV\u914a
p4271
I2489
sV\u56ca
p4272
I2317
sV\u9cc4
p4273
I2348
sV\u5047
p4274
I1083
sV\u7f20
p4275
I3149
sV\u76c8
p4276
I3611
sV\u5883
p4277
I4893
sV\u75ca
p4278
I1084
sV\u884c
p4279
I4833
sV\u4fce
p4280
I2349
sV\u62d0
p4281
I3612
sV\u6653
p4282
I2350
sV\u61d2
p4283
I1085
sV\u6555
p4284
I4847
sV\u7ed8
p4285
I2351
sV\u725b
p4286
I1086
sV\u915d
p4287
I2352
sV\u7cfb
p4288
I1479
sV\u745f
p4289
I1087
sV\u915a
p4290
I3434
sV\u94b3
p4291
I4742
sV\u8be1
p4292
I4836
sV\u94a7
p4293
I3111
sV\u796d
p4294
I2353
sV\u5c6f
p4295
I3616
sV\u5e7c
p4296
I3983
sV\u5371
p4297
I1088
sV\u72f0
p4298
I1089
sV\u5e42
p4299
I4947
sV\u82d2
p4300
I4812
sV\u74f4
p4301
I1090
sV\u8877
p4302
I1091
sV\u6328
p4303
I3776
sV\u8dfa
p4304
I2354
sV\u8ff8
p4305
I4890
sV\u87fe
p4306
I2355
sV\u7a81
p4307
I1092
sV\u5501
p4308
I4609
sV\u9f83
p4309
I2356
sV\u5802
p4310
I1093
sV\u9c85
p4311
I4849
sV\u9187
p4312
I2358
sV\u5206
p4313
I1094
sV\u5708
p4314
I3617
sV\u6b8b
p4315
I3618
sV\u540a
p4316
I1095
sV\u888d
p4317
I4851
sV\u4e0e
p4318
I1096
sV\u6291
p4319
I1097
sV\u6012
p4320
I2361
sV\u6495
p4321
I1098
sV\u5a01
p4322
I4871
sV\u9997
p4323
I3620
sV\u5e99
p4324
I3621
sV\u7f18
p4325
I3622
sV\u739b
p4326
I2362
sV\u5c1a
p4327
I2363
sV\u909d
p4328
I1099
sV\u759f
p4329
I2364
sV\u6b20
p4330
I3623
sV\u4fa3
p4331
I1100
sV\u8822
p4332
I4853
sV\u6ca5
p4333
I4854
sV\u8d24
p4334
I2365
sV\u61a7
p4335
I2366
sV\u86a9
p4336
I1101
sV\u6728
p4337
I3625
sV\u7bab
p4338
I1102
sV\u642a
p4339
I1103
sV\u5e2e
p4340
I3626
sV\u52b1
p4341
I4855
sV\u77b3
p4342
I1104
sV\u94b5
p4343
I2368
sV\u9534
p4344
I3627
sV\u69b7
p4345
I1105
sV\u9888
p4346
I3366
sV\u4f38
p4347
I1106
sV\u80bd
p4348
I2369
sV\u686b
p4349
I4178
sV\u663e
p4350
I4856
sV\u5ac1
p4351
I1107
sV\u5b40
p4352
I2370
sV\u5fc3
p4353
I3628
sV\u7cc5
p4354
I2371
sV\u91c7
p4355
I1108
sV\u96c9
p4356
I3631
sV\u670d
p4357
I3367
sV\u8bcb
p4358
I1109
sV\u544a
p4359
I4858
sV\u68cd
p4360
I2372
sV\u8d63
p4361
I4815
sV\u62b9
p4362
I3463
sV\u82d1
p4363
I3633
sV\u6350
p4364
I1110
sV\u67d3
p4365
I4861
sV\u6052
p4366
I3634
sV\u59d7
p4367
I4862
sV\u6f7c
p4368
I3403
sV\u7ed9
p4369
I1111
sV\u53db
p4370
I4863
sV\u618e
p4371
I4613
sV\u90dd
p4372
I4864
sV\u515c
p4373
I3635
sV\u5499
p4374
I3232
sV\u765e
p4375
I2373
sV\u552f
p4376
I4575
sV\u6862
p4377
I2374
sV\u6ce5
p4378
I1112
sV\u8d64
p4379
I1113
sV\u81e7
p4380
I2375
sV\u6768
p4381
I4867
sV\u70e6
p4382
I4209
sV\u86d9
p4383
I3937
sV\u6469
p4384
I3577
sV\u77f3
p4385
I2376
sV\u5f92
p4386
I2749
sV\u94f5
p4387
I1114
sV\u7574
p4388
I3638
sV\u75e8
p4389
I1672
sV\u835f
p4390
I4364
sV\u8f78
p4391
I2377
sV\u80fd
p4392
I1115
sV\u817c
p4393
I2378
sV\u85ff
p4394
I3640
sV\u667e
p4395
I1116
sV\u8c8c
p4396
I3750
sV\u6ec1
p4397
I1876
sV\u5f03
p4398
I2380
sV\u9882
p4399
I1117
sV\u9609
p4400
I2381
sV\u5782
p4401
I3365
sV\u948a
p4402
I1118
sV\u4e8e
p4403
I3641
sV\u6211
p4404
I3642
sV\u6390
p4405
I2382
sV\u8713
p4406
I4873
sV\u4f6f
p4407
I2943
sV\u7a96
p4408
I3643
sV\u8f9c
p4409
I4040
sV\u5f98
p4410
I2383
sV\u731b
p4411
I4874
sV\u5c9a
p4412
I4875
sV\u901d
p4413
I3644
sV\u519c
p4414
I2384
sV\u751f
p4415
I4876
sV\u6a21
p4416
I2385
sV\u68a2
p4417
I3645
sV\u8c25
p4418
I3646
sV\u6da4
p4419
I1119
sV\u8e48
p4420
I3898
sV\u82a6
p4421
I2386
sV\u87a8
p4422
I4878
sV\u7b2b
p4423
I3647
sV\u9646
p4424
I2523
sV\u9eef
p4425
I3516
sV\u7d2f
p4426
I3648
sV\u7231
p4427
I1120
sV\u73b0
p4428
I4879
sV\u6ba1
p4429
I4825
sV\u50b2
p4430
I1121
sV\u7435
p4431
I1122
sV\u75b4
p4432
I4881
sV\u4e39
p4433
I2388
sV\u599e
p4434
I4615
sV\u803d
p4435
I4883
sV\u653f
p4436
I3649
sV\u5c45
p4437
I3650
sV\u9662
p4438
I2775
sV\u884d
p4439
I1123
sV\u69cc
p4440
I3651
sV\u6d4f
p4441
I2389
sV\u4ece
p4442
I2390
sV\u6251
p4443
I4885
sV\u8c79
p4444
I3580
sV\u6753
p4445
I2391
sV\u5957
p4446
I2392
sV\u5ad6
p4447
I3654
sV\u5fd8
p4448
I1124
sV\u91dc
p4449
I3655
sV\u56de
p4450
I3656
sV\u6a61
p4451
I3657
sV\u8be0
p4452
I3658
sV\u4f63
p4453
I2394
sV\u6de4
p4454
I2395
sV\u6167
p4455
I1125
sV\u82e6
p4456
I1126
sV\u8be9
p4457
I4675
sV\u987a
p4458
I4427
sV\u59ec
p4459
I2396
sV\u7eee
p4460
I3660
sV\u53f0
p4461
I2397
sV\u9773
p4462
I1127
sV\u5475
p4463
I1128
sV\u75f4
p4464
I1129
sV\u6977
p4465
I4889
sV\u4ff8
p4466
I2398
sV\u837b
p4467
I1130
sV\u9b03
p4468
I5043
sV\u607d
p4469
I2399
sV\u81fc
p4470
I4892
sV\u5154
p4471
I1882
sV\u56df
p4472
I4749
sV\u5f02
p4473
I1131
sV\u5b85
p4474
I2401
sV\u5a04
p4475
I3663
sV\u7687
p4476
I3664
sV\u5506
p4477
I1132
sV\u5189
p4478
I2402
sV\u972d
p4479
I4617
sV\u6e56
p4480
I1883
sV\u6f8d
p4481
I1133
sV\u8e0c
p4482
I1134
sV\u690e
p4483
I2404
sV\u6591
p4484
I1135
sV\u6410
p4485
I4896
sV\u8093
p4486
I2405
sV\u8712
p4487
I3665
sV\u8214
p4488
I1136
sV\u5e97
p4489
I1137
sV\u5d16
p4490
I2406
sV\u9999
p4491
I1138
sV\u8d85
p4492
I4215
sV\u549b
p4493
I1139
sV\u62d7
p4494
I2570
sV\u961c
p4495
I2407
sV\u529f
p4496
I1140
sV\u911e
p4497
I4897
sV\u6da1
p4498
I4898
sV\u8d31
p4499
I3992
sV\u4f22
p4500
I2409
sV\u8ba5
p4501
I1141
sV\u66a7
p4502
I2410
sV\u61a9
p4503
I4899
sV\u6028
p4504
I3668
sV\u5cab
p4505
I2411
sV\u632a
p4506
I1142
sV\u992e
p4507
I1143
sV\u75b1
p4508
I3670
sV\u7430
p4509
I2412
sV\u70b3
p4510
I1144
sV\u9732
p4511
I1145
sV\u5608
p4512
I3582
sV\u6838
p4513
I2413
sV\u6b3a
p4514
I4902
sV\u663c
p4515
I2414
sV\u62bf
p4516
I1146
sV\u813e
p4517
I1147
sV\u5c40
p4518
I2415
sV\u7f42
p4519
I3671
sV\u5bc5
p4520
I1148
sV\u96c7
p4521
I1149
sV\u5546
p4522
I4903
sV\u51c9
p4523
I1150
sV\u5048
p4524
I2416
sV\u534a
p4525
I4904
sV\u4e4c
p4526
I2417
sV\u5986
p4527
I3202
sV\u77ed
p4528
I4605
sV\u63fd
p4529
I4754
sV\u6254
p4530
I1151
sV\u70b8
p4531
I3993
sV\u5858
p4532
I3673
sV\u94db
p4533
I2418
sV\u5b5a
p4534
I1152
sV\u565c
p4535
I3674
sV\u52df
p4536
I4905
sV\u715e
p4537
I2420
sV\u6de1
p4538
I1153
sV\u6c60
p4539
I4906
sV\u68e3
p4540
I3676
sV\u6f62
p4541
I2421
sV\u8be5
p4542
I4907
sV\u6566
p4543
I2422
sV\u592e
p4544
I3669
sV\u836a
p4545
I3677
sV\u9e6c
p4546
I2423
sV\u7aef
p4547
I2424
sV\u996e
p4548
I4909
sV\u75f1
p4549
I4910
sV\u7470
p4550
I3679
sV\u53f5
p4551
I3680
sV\u9274
p4552
I2425
sV\u4ef7
p4553
I1154
sV\u8d76
p4554
I4911
sV\u830e
p4555
I3421
sV\u79be
p4556
I1488
sV\u62ff
p4557
I2426
sV\u6414
p4558
I4821
sV\u806a
p4559
I3786
sV\u7a84
p4560
I2427
sV\u54c0
p4561
I4619
sV\u7109
p4562
I3682
sV\u9088
p4563
I3683
sV\u8c0b
p4564
I4914
sV\u4f0d
p4565
I4915
sV\u4e8c
p4566
I1155
sV\u5242
p4567
I4499
sV\u8511
p4568
I2428
sV\u5f99
p4569
I3585
sV\u603b
p4570
I3527
sV\u5919
p4571
I1156
sV\u7898
p4572
I1157
sV\u541b
p4573
I3684
sV\u5b9a
p4574
I4918
sV\u969c
p4575
I4919
sV\u6e86
p4576
I4122
sV\u8d21
p4577
I3685
sV\u761f
p4578
I4762
sV\u6627
p4579
I4920
sV\u60a8
p4580
I1158
sV\u71ac
p4581
I4574
sV\u83aa
p4582
I2429
sV\u7f2d
p4583
I1159
sV\u7eac
p4584
I4921
sV\u8bb7
p4585
I4791
sV\u59ae
p4586
I1160
sV\u7531
p4587
I1161
sV\u94b0
p4588
I1162
sV\u548f
p4589
I3890
sV\u8bba
p4590
I3687
sV\u673d
p4591
I1163
sV\u623f
p4592
I3688
sV\u61be
p4593
I2432
sV\u7ba1
p4594
I4220
sV\u5bdf
p4595
I4643
sV\u8bca
p4596
I3996
sV\u9b45
p4597
I1164
sV\u7ebd
p4598
I2771
sV\u9647
p4599
I3689
sV\u5a20
p4600
I4221
sV\u9149
p4601
I1165
sV\u70c8
p4602
I3691
sV\u73ca
p4603
I1166
sV\u4f4d
p4604
I3692
sV\u69ce
p4605
I1167
sV\u6551
p4606
I4925
sV\u67d2
p4607
I1168
sV\u6355
p4608
I4927
sV\u82d4
p4609
I2434
sV\u9e57
p4610
I4928
sV\u98d8
p4611
I3694
sV\u745b
p4612
I1169
sV\u91ce
p4613
I3997
sV\u575d
p4614
I4929
sV\u725f
p4615
I1170
sV\u6c24
p4616
I3587
sV\u8d61
p4617
I2436
sV\u6ce0
p4618
I2437
sV\u6863
p4619
I1171
sV\u8fe2
p4620
I1172
sV\u6b65
p4621
I3695
sV\u65e6
p4622
I4931
sV\u8169
p4623
I2438
sV\u60e8
p4624
I2439
sV\u63ea
p4625
I4932
sV\u5f6d
p4626
I1173
sV\u9a6f
p4627
I1174
sV\u94f0
p4628
I4933
sV\u5375
p4629
I1175
sV\u6979
p4630
I2440
sV\u88f8
p4631
I4934
sV\u620d
p4632
I3250
sV\u8bfa
p4633
I2441
sV\u66fc
p4634
I1176
sV\u627f
p4635
I4935
sV\u81fe
p4636
I2442
sV\u5c81
p4637
I2443
sV\u7f9a
p4638
I3523
sV\u5983
p4639
I4937
sV\u5e02
p4640
I1177
sV\u9a85
p4641
I4938
sV\u5406
p4642
I1178
sV\u7089
p4643
I1179
sV\u8d8b
p4644
I2445
sV\u520a
p4645
I1180
sV\u8d94
p4646
I3333
sV\u680e
p4647
I2446
sV\u6491
p4648
I1181
sV\u69d0
p4649
I3264
sV\u6c82
p4650
I4430
sV\u6295
p4651
I1182
sV\u8314
p4652
I1183
sV\u5f97
p4653
I1184
sV\u5c16
p4654
I2447
sV\u5899
p4655
I3696
sV\u7a1a
p4656
I1185
sV\u971c
p4657
I2448
sV\u539f
p4658
I1186
sV\u7984
p4659
I2534
sV\u6ca1
p4660
I4940
sV\u4e22
p4661
I2450
sV\u8426
p4662
I4942
sV\u80a9
p4663
I1187
sV\u622a
p4664
I1188
sV\u7ead
p4665
I3697
sV\u9edc
p4666
I3381
sV\u94b1
p4667
I2451
sV\u5530
p4668
I1189
sV\u51b3
p4669
I2453
sV\u9632
p4670
I1190
sV\u7334
p4671
I2454
sV\u8c36
p4672
I1191
sV\u55b5
p4673
I4827
sV\u9f0b
p4674
I4431
sV\u7434
p4675
I2329
sV\u79c3
p4676
I4946
sV\u9e42
p4677
I2455
sV\u9ac5
p4678
I3700
sV\u9b44
p4679
I4948
sV\u5446
p4680
I4949
sV\u5148
p4681
I2456
sV\u8dcb
p4682
I1192
sV\u524a
p4683
I4951
sV\u4ecd
p4684
I1193
sV\u8bcf
p4685
I1194
sV\u684e
p4686
I3701
sV\u6652
p4687
I3702
sV\u82d5
p4688
I3703
sV\u8354
p4689
I4953
sV\u5fd7
p4690
I4954
sV\u6e38
p4691
I2331
sV\u98d9
p4692
I4955
sV\u5958
p4693
I3704
sV\u9a97
p4694
I3500
sV\u5a5a
p4695
I1195
sV\u5f20
p4696
I4420
sV\u53df
p4697
I4956
sV\u705e
p4698
I2457
sV\u6ce1
p4699
I1196
sV\u8d60
p4700
I1197
sV\u89e3
p4701
I2458
sV\u83ca
p4702
I4326
sV\u632f
p4703
I2785
sV\u60e9
p4704
I1198
sV\u6168
p4705
I4958
sV\u5deb
p4706
I1199
sV\u626a
p4707
I2459
sV\u7eed
p4708
I4959
sV\u5f6c
p4709
I4960
sV\u786e
p4710
I1200
sV\u9570
p4711
I2460
sV\u51f3
p4712
I1201
sV\u5492
p4713
I3161
sV\u94bf
p4714
I4225
sV\u8ff7
p4715
I3706
sV\u6c76
p4716
I1202
sV\u88f9
p4717
I1203
sV\u6015
p4718
I3793
sV\u85fb
p4719
I3707
sV\u573e
p4720
I2957
sV\u4ed4
p4721
I4482
sV\u7968
p4722
I4025
sV\u6668
p4723
I4839
sV\u8bc1
p4724
I2958
sV\u7e82
p4725
I4964
sV\u5a05
p4726
I4965
sV\u56d4
p4727
I4177
sV\u9707
p4728
I4966
sV\u5486
p4729
I3708
sV\u9009
p4730
I2461
sV\u5188
p4731
I1204
sV\u6d0b
p4732
I1205
sV\u728a
p4733
I4967
sV\u6e0d
p4734
I3709
sV\u7ec3
p4735
I4829
sV\u6170
p4736
I2928
sV\u6590
p4737
I2462
sV\u59d0
p4738
I3881
sV\u5942
p4739
I4830
sV\u6215
p4740
I3710
sV\u626f
p4741
I4005
sV\u5f17
p4742
I3711
sV\u5c96
p4743
I4970
sV\u9a9a
p4744
I2463
sV\u6c21
p4745
I2464
sV\u6ea2
p4746
I3713
sV\u8ba4
p4747
I4973
sV\u6029
p4748
I2465
sV\u61a8
p4749
I1206
sV\u7d2b
p4750
I3714
sV\u82aa
p4751
I2466
sV\u5e2d
p4752
I2467
sV\u5431
p4753
I2468
sV\u7235
p4754
I1207
sV\u6839
p4755
I1208
sV\u7b75
p4756
I2108
sV\u853b
p4757
I2469
sV\u7acb
p4758
I4226
sV\u745c
p4759
I5003
sV\u80be
p4760
I3716
sV\u5c41
p4761
I3717
sV\u554a
p4762
I4832
sV\u6096
p4763
I2617
sV\u5bc4
p4764
I4978
sV\u5747
p4765
I1209
sV\u54c6
p4766
I2470
sV\u6d4b
p4767
I2471
sV\u4e4d
p4768
I3719
sV\u7f8a
p4769
I4470
sV\u7ce8
p4770
I1329
sV\u85d0
p4771
I2472
sV\u8153
p4772
I3720
sV\u7f57
p4773
I1210
sV\u9cd6
p4774
I1211
sV\u79d8
p4775
I2474
sV\u955b
p4776
I4982
sV\u77dc
p4777
I2475
sV\u5664
p4778
I2574
sV\u8c61
p4779
I2476
sV\u73d1
p4780
I1690
sV\u6963
p4781
I1212
sV\u8be4
p4782
I3722
sV\u84e6
p4783
I1213
sV\u8069
p4784
I2477
sV\u9e6d
p4785
I3724
sV\u63aa
p4786
I3686
sV\u5471
p4787
I1214
sV\u75f0
p4788
I1215
sV\u8bd8
p4789
I3172
sV\u76f2
p4790
I3726
sV\u7275
p4791
I2478
sV\u5a7f
p4792
I2763
sV\u4ea2
p4793
I4972
sV\u867d
p4794
I3727
sV\u4f2b
p4795
I4435
sV\u74a9
p4796
I4186
sV\u7f81
p4797
I1216
sV\u7a83
p4798
I3728
sV\u5d02
p4799
I1217
sV\u7985
p4800
I1218
sV\u7487
p4801
I3729
sV\u5706
p4802
I1219
sV\u7389
p4803
I1220
sV\u4e8b
p4804
I4987
sV\u710a
p4805
I2481
sV\u8c0c
p4806
I1221
sV\u688f
p4807
I3731
sV\u4f7b
p4808
I3496
sV\u6293
p4809
I3732
sV\u6512
p4810
I2482
sV\u6014
p4811
I4988
sV\u5c97
p4812
I1222
sV\u7f16
p4813
I1223
sV\u98d5
p4814
I2844
sV\u5a18
p4815
I4989
sV\u591a
p4816
I2484
sV\u559d
p4817
I3734
sV\u62db
p4818
I2963
sV\u9c9c
p4819
I4681
sV\u6e20
p4820
I3735
sV\u798f
p4821
I3148
sV\u8d5a
p4822
I2964
sV\u5750
p4823
I1881
sV\u5f87
p4824
I4626
sV\u6726
p4825
I1224
sV\u63a9
p4826
I4993
sV\u7eab
p4827
I1225
sV\u8c06
p4828
I2764
sV\u5c2c
p4829
I1226
sV\u5889
p4830
I2110
sV\u52b3
p4831
I2485
sV\u9532
p4832
I1227
sV\u51b5
p4833
I4995
sV\u5965
p4834
I4407
sV\u4f36
p4835
I3736
sV\u8bb9
p4836
I2486
sV\u975e
p4837
I3592
sV\u65bd
p4838
I3737
sV\u80bf
p4839
I4996
sV\u7fc1
p4840
I2487
sV\u5be1
p4841
I1698
sV\u826e
p4842
I4114
sV\u54c7
p4843
I3738
sV\u53c9
p4844
I1228
sV\u7248
p4845
I1229
sV\u4ecb
p4846
I3739
sV\u7eb6
p4847
I1897
sV\u82e5
p4848
I4644
sV\u67d1
p4849
I2490
sV\u8650
p4850
I4999
sV\u82d3
p4851
I1230
sV\u98e8
p4852
I2762
sV\u8054
p4853
I5001
sV\u9cd7
p4854
I2491
sV\u76db
p4855
I3743
sV\u595a
p4856
I1231
sV\u55dd
p4857
I2493
sV\u545c
p4858
I3744
sV\u70df
p4859
I3745
sV\u535e
p4860
I1232
sV\u6fe1
p4861
I1233
sV\u5c91
p4862
I1498
sV\u8d62
p4863
I3747
sV\u89e5
p4864
I5004
sV\u70e7
p4865
I2966
sV\u7490
p4866
I1780
sV\u843d
p4867
I5054
sV\u7eeb
p4868
I2495
sV\u75bc
p4869
I4438
sV\u97e9
p4870
I4230
sV\u7572
p4871
I1234
sV\u9074
p4872
I2496
sV\u4f76
p4873
I2497
sV\u8bf9
p4874
I1235
sV\u7600
p4875
I4662
sV\u64a9
p4876
I4790
sV\uff01
p4877
I2186
sV\u5a03
p4878
I2498
sV\u756a
p4879
I1701
sV\u9884
p4880
I3749
sV\u5288
p4881
I1236
sV\u4e0b
p4882
I2499
sV\u718a
p4883
I5007
sV\u6c8c
p4884
I2500
sV\u680f
p4885
I1237
sV\u8c1a
p4886
I4261
sV\u9ed1
p4887
I2842
sV\u6115
p4888
I3751
sV\u6094
p4889
I2501
sV\u7b19
p4890
I2502
sV\u7a98
p4891
I1238
sV\u561b
p4892
I3752
sV\u8f6e
p4893
I4231
sV\u749c
p4894
I1239
sV\u901f
p4895
I1240
sV\u9576
p4896
I3982
sV\u9631
p4897
I5051
sV\u8925
p4898
I3754
sV\u88a4
p4899
I5009
sV\u8427
p4900
I1241
sV\u6270
p4901
I2968
sV\u62a8
p4902
I1242
sV\u96c6
p4903
I5058
sV\u5d2d
p4904
I2503
sV\u86f3
p4905
I2969
sV\u75b2
p4906
I2504
sV\u8c37
p4907
I2505
sV\u53c8
p4908
I5059
sV\u9530
p4909
I3698
sV\u853d
p4910
I5010
sV\u64bc
p4911
I5011
sV\u803f
p4912
I2506
sV\u7ec0
p4913
I3755
sV\u90ca
p4914
I5060
sV\u5d6c
p4915
I5037
sV\u5349
p4916
I3756
sV\u72c8
p4917
I3757
sV\u4e4b
p4918
I1243
sV\u91ca
p4919
I5012
sV\u6ccc
p4920
I3759
sV\u6dcc
p4921
I3799
sV\u6751
p4922
I5013
sV\u6253
p4923
I2507
sV\u8155
p4924
I1244
sV\u5fd6
p4925
I3760
sV\u5b59
p4926
I5015
sV\u9ad8
p4927
I3761
sV\u965b
p4928
I5016
sV\u59da
p4929
I3762
sV\u955d
p4930
I2508
sV\u74dc
p4931
I2509
sV\u73de
p4932
I5017
sV\u6d4a
p4933
I2642
sV\u717d
p4934
I1720
sV\u6467
p4935
I1245
sV\u67d0
p4936
I3800
sV\u62e8
p4937
I2510
sV\u9e6b
p4938
I1246
sV\u81ea
p4939
I1247
sV\u7bee
p4940
I3765
sV\u56f0
p4941
I2511
sV\u8538
p4942
I3241
sV\u54d2
p4943
I1899
sV\u5175
p4944
I1248
sV\u90f4
p4945
I5020
sV\u6b79
p4946
I2513
sV\u6055
p4947
I5061
sV\u867b
p4948
I1249
sV\u807f
p4949
I1250
sV\u5f00
p4950
I3767
sV\u5b83
p4951
I5023
sV\u5885
p4952
I2514
sV\u5904
p4953
I3768
sV\u5587
p4954
I5025
sV\u5308
p4955
I3769
sV\u4f8b
p4956
I5026
sV\u900a
p4957
I3770
sV\u5170
p4958
I4799
sV\u6691
p4959
I1251
sV\u8393
p4960
I2515
sV\u5e16
p4961
I2516
sV\u94a8
p4962
I4168
sV\u579b
p4963
I1252
sV\u781a
p4964
I1253
sV\u949d
p4965
I1254
sV\u575b
p4966
I2554
sV\u719f
p4967
I2517
sV\u4ea1
p4968
I3772
sV\u6f20
p4969
I3773
sV\u8ba3
p4970
I3774
sV\u6c22
p4971
I1255
sV\u6924
p4972
I3775
sV\u65a7
p4973
I2518
sV\u8328
p4974
I2519
sV\u602a
p4975
I1256
sV\u5cad
p4976
I5029
sV\u76b1
p4977
I3777
sV\u5730
p4978
I1257
sV\u6e32
p4979
I4016
sV\u90b5
p4980
I2520
sV\u62d3
p4981
I5000
sV\u72de
p4982
I5063
sV\u853c
p4983
I3778
sV\u623e
p4984
I5030
sV\u5c42
p4985
I5031
sV\u58c5
p4986
I1258
sV\u5944
p4987
I2522
sV\u75c7
p4988
I5032
sV\u7fe0
p4989
I1900
sV\u52c9
p4990
I1259
sV\u5348
p4991
I2524
sV\u4f20
p4992
I5027
sV\u8d4c
p4993
I5033
sV\u988c
p4994
I2974
sV\u6750
p4995
I1260
sV\u6452
p4996
I3779
sV\u60d5
p4997
I2525
sV\u8c0f
p4998
I4840
sV\u8138
p4999
I3395
sV\u7ad9
p5000
I1261
sV\u5b58
p5001
I3780
sV\u77db
p5002
I3781
sV\u6f8e
p5003
I4841
sV\u54dd
p5004
I2526
sV\u955c
p5005
I1262
sV\u6ee1
p5006
I1263
sV\u4f60
p5007
I3783
sV\u8be3
p5008
I2527
sV\u8c62
p5009
I3784
sV\u65e7
p5010
I3785
sV\u6666
p5011
I2528
sV\u62e9
p5012
I1264
sV\u8368
p5013
I1265
sV\u5feb
p5014
I1266
sV\u606a
p5015
I2529
sV\u5ced
p5016
I3787
sV\u6c27
p5017
I4684
sV\u79ef
p5018
I2530
sV\u9a6e
p5019
I5038
sV\u56f1
p5020
I3788
sV\u5269
p5021
I4446
sV\u53f3
p5022
I1267
sV\u5472
p5023
I2531
sV\u50f5
p5024
I3789
sV\u8bbf
p5025
I4632
sV\u6df7
p5026
I2532
sV\u8e76
p5027
I5040
sV\u6cc4
p5028
I2980
sV\u61ff
p5029
I2533
sV\u627e
p5030
I1268
sV\u5e01
p5031
I5042
sV\u5f80
p5032
I1269
sV\u7b03
p5033
I1270
sV\u5c82
p5034
I3791
sV\u5984
p5035
I1271
sV\u5507
p5036
I2535
sV\u9686
p5037
I1272
sV\u708a
p5038
I5045
sV\u8c0d
p5039
I2536
sV\u6d8c
p5040
I2537
sV\u54b1
p5041
I4945
sV\u8611
p5042
I2538
sV\u6790
p5043
I2539
sV\u6492
p5044
I5046
sV\u8015
p5045
I2540
sV\u6194
p5046
I2541
sV\u7480
p5047
I2087
sV\u5e96
p5048
I5047
sV\u5b98
p5049
I2542
sV\u989a
p5050
I2543
sV\u541d
p5051
I1273
sV\u559c
p5052
I2544
sV\u529e
p5053
I5048
sV\u6e21
p5054
I2545
sV\u4fa0
p5055
I2546
sV\u6b23
p5056
I5049
sV\u63a8
p5057
I1274
sV\u80aa
p5058
I2547
sV\u592f
p5059
I5050
sV\u5631
p5060
I2548
sV\u66f9
p5061
I4565
sV\u54f2
p5062
I5068
sV\u9035
p5063
I5053
sV\u91b4
p5064
I1275
sV\u8d37
p5065
I2549
sV\u5948
p5066
I2115
sV\u8bb8
p5067
I1276
sV\u873b
p5068
I2551
sV\u643d
p5069
I1277
sV\u65bc
p5070
I5055
sV\u613f
p5071
I3795
sV\u82be
p5072
I3796
sV\u7e41
p5073
I5056
sV\u8722
p5074
I4594
sV\u64e6
p5075
I4983
sV\u7845
p5076
I5057
sV\u6d77
p5077
I5069
sV\u9547
p5078
I3797
sV\u76c6
p5079
I1278
sV\u73c8
p5080
I3798
sV\u6f4b
p5081
I2552
sV\u70ca
p5082
I1279
sV\u8dcc
p5083
I2553
sV\u919b
p5084
I3541
sV\u8651
p5085
I1280
sV\u6a79
p5086
I2559
sV\u64d2
p5087
I1281
sg16
I1
sV\u63cf
p5088
I4639
sV\u5ed6
p5089
I3801
sV\u8d25
p5090
I3606
sV\u775b
p5091
I1282
sV\u98da
p5092
I1283
sV\u55dc
p5093
I1284
sV\u9ca4
p5094
I4239
sV\u4e61
p5095
I5064
sV\u6fe0
p5096
I2555
sV\u6b63
p5097
I1285
sV\u6ce2
p5098
I5065
sV\u8865
p5099
I2556
sV\u90f8
p5100
I4006
sV\u6269
p5101
I3803
sV\u996f
p5102
I1286
sV\u5671
p5103
I1287
sV\u7729
p5104
I1712
sV\u5373
p5105
I3804
sV\u94f2
p5106
I2557
sV\u7075
p5107
I2558
sV\u8d77
p5108
I1288
sV\u4ef6
p5109
I5070
sV\u78c5
p5110
I2521
sV\u8bf8
p5111
I5071
sV\u68fa
p5112
I3807
sV\u817f
p5113
I1289
sV\u5b54
p5114
I1509
s(dp5115
I0
g15
sI1
g16
sI2
g2382
sI3
g45
sI4
g48
sI5
g49
sI6
g51
sI7
g61
sI8
g62
sI9
g64
sI10
g69
sI11
g74
sI12
g77
sI13
g78
sI14
g81
sI15
g84
sI16
g85
sI17
g88
sI18
g89
sI19
g90
sI20
g92
sI21
g105
sI22
g106
sI23
g107
sI24
g110
sI25
g119
sI26
g121
sI27
g127
sI28
g130
sI29
g137
sI30
g142
sI31
g146
sI32
g149
sI33
g156
sI34
g160
sI35
g181
sI36
g185
sI37
g188
sI38
g192
sI39
g195
sI40
g197
sI41
g198
sI42
g203
sI43
g205
sI44
g207
sI45
g208
sI46
g209
sI47
g213
sI48
g214
sI49
g219
sI50
g226
sI51
g232
sI52
g233
sI53
g236
sI54
g238
sI55
g244
sI56
g247
sI57
g250
sI58
g265
sI59
g269
sI60
g1433
sI61
g272
sI62
g275
sI63
g278
sI64
g286
sI65
g288
sI66
g293
sI67
g295
sI68
g299
sI69
g300
sI70
g301
sI71
g315
sI72
g321
sI73
g327
sI74
g331
sI75
g338
sI76
g1838
sI77
g344
sI78
g349
sI79
g355
sI80
g356
sI81
g358
sI82
g369
sI83
g375
sI84
g379
sI85
g381
sI86
g394
sI87
g396
sI88
g398
sI89
g404
sI90
g412
sI91
g414
sI92
g415
sI93
g417
sI94
g419
sI95
g421
sI96
g432
sI97
g435
sI98
g436
sI99
g437
sI100
g441
sI101
g442
sI102
g443
sI103
g446
sI104
g448
sI105
g455
sI106
g456
sI107
g461
sI108
g469
sI109
g475
sI110
g478
sI111
g481
sI112
g483
sI113
g487
sI114
g488
sI115
g491
sI116
g498
sI117
g506
sI118
g507
sI119
g509
sI120
g511
sI121
g515
sI122
g517
sI123
g524
sI124
g525
sI125
g527
sI126
g529
sI127
g536
sI128
g538
sI129
g543
sI130
g544
sI131
g545
sI132
g552
sI133
g558
sI134
g560
sI135
g564
sI136
g570
sI137
g571
sI138
g578
sI139
g579
sI140
g582
sI141
g587
sI142
g589
sI143
g597
sI144
g599
sI145
g604
sI146
g610
sI147
g611
sI148
g615
sI149
g625
sI150
g626
sI151
g628
sI152
g629
sI153
g634
sI154
g640
sI155
g642
sI156
g643
sI157
g646
sI158
g648
sI159
g658
sI160
g659
sI161
g661
sI162
g663
sI163
g664
sI164
g672
sI165
g691
sI166
g698
sI167
g704
sI168
g707
sI169
g714
sI170
g718
sI171
g723
sI172
g724
sI173
g728
sI174
g735
sI175
g737
sI176
g740
sI177
g743
sI178
g755
sI179
g756
sI180
g764
sI181
g770
sI182
g775
sI183
g781
sI184
g787
sI185
g789
sI186
g798
sI187
g801
sI188
g804
sI189
g807
sI190
g812
sI191
g818
sI192
g822
sI193
g826
sI194
g829
sI195
g836
sI196
g840
sI197
g843
sI198
g844
sI199
g846
sI200
g847
sI201
g851
sI202
g852
sI203
g856
sI204
g864
sI205
g867
sI206
g871
sI207
g873
sI208
g887
sI209
g890
sI210
g892
sI211
g900
sI212
g909
sI213
g912
sI214
g913
sI215
g914
sI216
g918
sI217
g921
sI218
g924
sI219
g928
sI220
g934
sI221
g939
sI222
g941
sI223
g946
sI224
g947
sI225
g951
sI226
g955
sI227
g956
sI228
g957
sI229
g969
sI230
g970
sI231
g973
sI232
g986
sI233
g988
sI234
g989
sI235
g990
sI236
g999
sI237
g1000
sI238
g1002
sI239
g1004
sI240
g1007
sI241
g1015
sI242
g1016
sI243
g1022
sI244
g1030
sI245
g1032
sI246
g1033
sI247
g1035
sI248
g1037
sI249
g1048
sI250
g1050
sI251
g1053
sI252
g1060
sI253
g1061
sI254
g1066
sI255
g1075
sI256
g1078
sI257
g1079
sI258
g1082
sI259
g1088
sI260
g1103
sI261
g1112
sI262
g1120
sI263
g1122
sI264
g1124
sI265
g1128
sI266
g1131
sI267
g1133
sI268
g1139
sI269
g1147
sI270
g1150
sI271
g1153
sI272
g1158
sI273
g1160
sI274
g1167
sI275
g1169
sI276
g1171
sI277
g1175
sI278
g1180
sI279
g1182
sI280
g1186
sI281
g1191
sI282
g1196
sI283
g1197
sI284
g1198
sI285
g1200
sI286
g1202
sI287
g1206
sI288
g1213
sI289
g1215
sI290
g1223
sI291
g1225
sI292
g1227
sI293
g1231
sI294
g1233
sI295
g1237
sI296
g1240
sI297
g1243
sI298
g1247
sI299
g1249
sI300
g1251
sI301
g1257
sI302
g1259
sI303
g1264
sI304
g1268
sI305
g1274
sI306
g1278
sI307
g1283
sI308
g1291
sI309
g1296
sI310
g1297
sI311
g1299
sI312
g1301
sI313
g1303
sI314
g1305
sI315
g1315
sI316
g1323
sI317
g1326
sI318
g1327
sI319
g1329
sI320
g1335
sI321
g1339
sI322
g1340
sI323
g1346
sI324
g1350
sI325
g1353
sI326
g1355
sI327
g1356
sI328
g1359
sI329
g1362
sI330
g1363
sI331
g1370
sI332
g1371
sI333
g1374
sI334
g1375
sI335
g1380
sI336
g1381
sI337
g1382
sI338
g1387
sI339
g1389
sI340
g1405
sI341
g1406
sI342
g1408
sI343
g1416
sI344
g1420
sI345
g1425
sI346
g1428
sI347
g1432
sI348
g1434
sI349
g1438
sI350
g1444
sI351
g1445
sI352
g1447
sI353
g1448
sI354
g1449
sI355
g1452
sI356
g1453
sI357
g1456
sI358
g1457
sI359
g1460
sI360
g1463
sI361
g1466
sI362
g1472
sI363
g1474
sI364
g1476
sI365
g1479
sI366
g1480
sI367
g1482
sI368
g1487
sI369
g1489
sI370
g1490
sI371
g1498
sI372
g1502
sI373
g1503
sI374
g1505
sI375
g1508
sI376
g1518
sI377
g1524
sI378
g1525
sI379
g1530
sI380
g1532
sI381
g1533
sI382
g1540
sI383
g1543
sI384
g1546
sI385
g1547
sI386
g1548
sI387
g1549
sI388
g1551
sI389
g1563
sI390
g1565
sI391
g1567
sI392
g1572
sI393
g1577
sI394
g1582
sI395
g1585
sI396
g1589
sI397
g1591
sI398
g1596
sI399
g1600
sI400
g1601
sI401
g1602
sI402
g1604
sI403
g1608
sI404
g1611
sI405
g1615
sI406
g1619
sI407
g1620
sI408
g1623
sI409
g1624
sI410
g1627
sI411
g1634
sI412
g1636
sI413
g1638
sI414
g1642
sI415
g1654
sI416
g1657
sI417
g1660
sI418
g1662
sI419
g1671
sI420
g1675
sI421
g1676
sI422
g1688
sI423
g1690
sI424
g1693
sI425
g1694
sI426
g1695
sI427
g1697
sI428
g1700
sI429
g1701
sI430
g1711
sI431
g1716
sI432
g1719
sI433
g1724
sI434
g1725
sI435
g1728
sI436
g1730
sI437
g1733
sI438
g1734
sI439
g1737
sI440
g1739
sI441
g1740
sI442
g1743
sI443
g1747
sI444
g1749
sI445
g1752
sI446
g1754
sI447
g1757
sI448
g1758
sI449
g1762
sI450
g1763
sI451
g1770
sI452
g1771
sI453
g1772
sI454
g1777
sI455
g1781
sI456
g1786
sI457
g1787
sI458
g1788
sI459
g1790
sI460
g1793
sI461
g1796
sI462
g1798
sI463
g1803
sI464
g1808
sI465
g1811
sI466
g1813
sI467
g1816
sI468
g1819
sI469
g1820
sI470
g1830
sI471
g1839
sI472
g1842
sI473
g1844
sI474
g1860
sI475
g1861
sI476
g1865
sI477
g1868
sI478
g1871
sI479
g1872
sI480
g1876
sI481
g1883
sI482
g1886
sI483
g1899
sI484
g1910
sI485
g1911
sI486
g1913
sI487
g1916
sI488
g1923
sI489
g1926
sI490
g1937
sI491
g1940
sI492
g1943
sI493
g1951
sI494
g1959
sI495
g1963
sI496
g1964
sI497
g1969
sI498
g1976
sI499
g1978
sI500
g1979
sI501
g1984
sI502
g1988
sI503
g1998
sI504
g2001
sI505
g2002
sI506
g2005
sI507
g2013
sI508
g2020
sI509
g2031
sI510
g2040
sI511
g2047
sI512
g2058
sI513
g2060
sI514
g2062
sI515
g2065
sI516
g2069
sI517
g2078
sI518
g2087
sI519
g2094
sI520
g2095
sI521
g2099
sI522
g2102
sI523
g2107
sI524
g2112
sI525
g2114
sI526
g2118
sI527
g2121
sI528
g2123
sI529
g2125
sI530
g2134
sI531
g2139
sI532
g2143
sI533
g2147
sI534
g2153
sI535
g2158
sI536
g2159
sI537
g2162
sI538
g2163
sI539
g2166
sI540
g2177
sI541
g2180
sI542
g2185
sI543
g2186
sI544
g2191
sI545
g2192
sI546
g2195
sI547
g2198
sI548
g2199
sI549
g2202
sI550
g2205
sI551
g2207
sI552
g2212
sI553
g2214
sI554
g2219
sI555
g2223
sI556
g2227
sI557
g2230
sI558
g2231
sI559
g2233
sI560
g2236
sI561
g2244
sI562
g2248
sI563
g2255
sI564
g2260
sI565
g2261
sI566
g2263
sI567
g2269
sI568
g2273
sI569
g2274
sI570
g2276
sI571
g2282
sI572
g2291
sI573
g2300
sI574
g2302
sI575
g2307
sI576
g2313
sI577
g2317
sI578
g2318
sI579
g2325
sI580
g2330
sI581
g2331
sI582
g2339
sI583
g2340
sI584
g2343
sI585
g2347
sI586
g2358
sI587
g2360
sI588
g2361
sI589
g2364
sI590
g2370
sI591
g2372
sI592
g2377
sI593
g2378
sI594
g2387
sI595
g2388
sI596
g2392
sI597
g2393
sI598
g2395
sI599
g2399
sI600
g2404
sI601
g2407
sI602
g2413
sI603
g2415
sI604
g2416
sI605
g2422
sI606
g2424
sI607
g2425
sI608
g2434
sI609
g2438
sI610
g2441
sI611
g2442
sI612
g2453
sI613
g2456
sI614
g2463
sI615
g2469
sI616
g2475
sI617
g2477
sI618
g2485
sI619
g2491
sI620
g2498
sI621
g2504
sI622
g2506
sI623
g2508
sI624
g2509
sI625
g2514
sI626
g2516
sI627
g2522
sI628
g2524
sI629
g2525
sI630
g2526
sI631
g2535
sI632
g2537
sI633
g2544
sI634
g2545
sI635
g2546
sI636
g2555
sI637
g2556
sI638
g2557
sI639
g2559
sI640
g2561
sI641
g2562
sI642
g2565
sI643
g2566
sI644
g2572
sI645
g2578
sI646
g2583
sI647
g2584
sI648
g2586
sI649
g2588
sI650
g2589
sI651
g2598
sI652
g2599
sI653
g2609
sI654
g2613
sI655
g2615
sI656
g2616
sI657
g2620
sI658
g2632
sI659
g2633
sI660
g2635
sI661
g2636
sI662
g2640
sI663
g2643
sI664
g2644
sI665
g2646
sI666
g2649
sI667
g2652
sI668
g2653
sI669
g2655
sI670
g2667
sI671
g2668
sI672
g2673
sI673
g2674
sI674
g2676
sI675
g2679
sI676
g2683
sI677
g2684
sI678
g2699
sI679
g2703
sI680
g2705
sI681
g2711
sI682
g2714
sI683
g2718
sI684
g2720
sI685
g2721
sI686
g2726
sI687
g2730
sI688
g2736
sI689
g2749
sI690
g2750
sI691
g2752
sI692
g2767
sI693
g2774
sI694
g2782
sI695
g2784
sI696
g2786
sI697
g2788
sI698
g2790
sI699
g2793
sI700
g2794
sI701
g2817
sI702
g2823
sI703
g2826
sI704
g2827
sI705
g2829
sI706
g2831
sI707
g2832
sI708
g2833
sI709
g2838
sI710
g2842
sI711
g2848
sI712
g2851
sI713
g2853
sI714
g2855
sI715
g2857
sI716
g2867
sI717
g2870
sI718
g2874
sI719
g2886
sI720
g2889
sI721
g2891
sI722
g2893
sI723
g2894
sI724
g2903
sI725
g2905
sI726
g2909
sI727
g2910
sI728
g2911
sI729
g2913
sI730
g2915
sI731
g2917
sI732
g2918
sI733
g2920
sI734
g2929
sI735
g2937
sI736
g2940
sI737
g2952
sI738
g2953
sI739
g2959
sI740
g2963
sI741
g2967
sI742
g2971
sI743
g2974
sI744
g2976
sI745
g2982
sI746
g2984
sI747
g2985
sI748
g2987
sI749
g2997
sI750
g3003
sI751
g3007
sI752
g3016
sI753
g3017
sI754
g3019
sI755
g3020
sI756
g3021
sI757
g3022
sI758
g3024
sI759
g3026
sI760
g3030
sI761
g3034
sI762
g3036
sI763
g3038
sI764
g3039
sI765
g3045
sI766
g3047
sI767
g3049
sI768
g3050
sI769
g3053
sI770
g3057
sI771
g3059
sI772
g3060
sI773
g3063
sI774
g3064
sI775
g3066
sI776
g3074
sI777
g3077
sI778
g3078
sI779
g3082
sI780
g3083
sI781
g3090
sI782
g3091
sI783
g3092
sI784
g3094
sI785
g3096
sI786
g3100
sI787
g3101
sI788
g3107
sI789
g3110
sI790
g3112
sI791
g3114
sI792
g3115
sI793
g3118
sI794
g3119
sI795
g3129
sI796
g3132
sI797
g3150
sI798
g3154
sI799
g3155
sI800
g3157
sI801
g3160
sI802
g3165
sI803
g3166
sI804
g3172
sI805
g3174
sI806
g3180
sI807
g3184
sI808
g3200
sI809
g3207
sI810
g3212
sI811
g3220
sI812
g3225
sI813
g3228
sI814
g3230
sI815
g3234
sI816
g3245
sI817
g3246
sI818
g3249
sI819
g3253
sI820
g3256
sI821
g3257
sI822
g3262
sI823
g3264
sI824
g3266
sI825
g3269
sI826
g3270
sI827
g3276
sI828
g3277
sI829
g3281
sI830
g3291
sI831
g3294
sI832
g3307
sI833
g3310
sI834
g3319
sI835
g3321
sI836
g3329
sI837
g3336
sI838
g3341
sI839
g3345
sI840
g3353
sI841
g3356
sI842
g3357
sI843
g3366
sI844
g3369
sI845
g3371
sI846
g3372
sI847
g3373
sI848
g3374
sI849
g3376
sI850
g3377
sI851
g3381
sI852
g3382
sI853
g3387
sI854
g3388
sI855
g3390
sI856
g3394
sI857
g3398
sI858
g3403
sI859
g3405
sI860
g3407
sI861
g3410
sI862
g3411
sI863
g3417
sI864
g3430
sI865
g3432
sI866
g3433
sI867
g3434
sI868
g3435
sI869
g3443
sI870
g3445
sI871
g3447
sI872
g3456
sI873
g3472
sI874
g3473
sI875
g3483
sI876
g3485
sI877
g3493
sI878
g3496
sI879
g3502
sI880
g3505
sI881
g3509
sI882
g3515
sI883
g3520
sI884
g3522
sI885
g3523
sI886
g3529
sI887
g3532
sI888
g3533
sI889
g3538
sI890
g3549
sI891
g3553
sI892
g3556
sI893
g3561
sI894
g3570
sI895
g3572
sI896
g3579
sI897
g3588
sI898
g3592
sI899
g3593
sI900
g3597
sI901
g3600
sI902
g3606
sI903
g3609
sI904
g3611
sI905
g3617
sI906
g3618
sI907
g3621
sI908
g3626
sI909
g3627
sI910
g3630
sI911
g3639
sI912
g3644
sI913
g3648
sI914
g3656
sI915
g3657
sI916
g3658
sI917
g3664
sI918
g3666
sI919
g3668
sI920
g3670
sI921
g3681
sI922
g3682
sI923
g3684
sI924
g3688
sI925
g3690
sI926
g3696
sI927
g3702
sI928
g3704
sI929
g3708
sI930
g3709
sI931
g3712
sI932
g3715
sI933
g3719
sI934
g3721
sI935
g3722
sI936
g3726
sI937
g3730
sI938
g3734
sI939
g3736
sI940
g3740
sI941
g3741
sI942
g3743
sI943
g3749
sI944
g3754
sI945
g3755
sI946
g3756
sI947
g3759
sI948
g3764
sI949
g3766
sI950
g3770
sI951
g3775
sI952
g3793
sI953
g3796
sI954
g3797
sI955
g3799
sI956
g3801
sI957
g3802
sI958
g3806
sI959
g3810
sI960
g3813
sI961
g3822
sI962
g3824
sI963
g3832
sI964
g3835
sI965
g3836
sI966
g3837
sI967
g3841
sI968
g3847
sI969
g3848
sI970
g3855
sI971
g3857
sI972
g3863
sI973
g3865
sI974
g3869
sI975
g3870
sI976
g3872
sI977
g3878
sI978
g3880
sI979
g3892
sI980
g3893
sI981
g3895
sI982
g3897
sI983
g3909
sI984
g3910
sI985
g3913
sI986
g3915
sI987
g3918
sI988
g3919
sI989
g3926
sI990
g3930
sI991
g3935
sI992
g3936
sI993
g3940
sI994
g3941
sI995
g3943
sI996
g3944
sI997
g3945
sI998
g3953
sI999
g3954
sI1000
g3957
sI1001
g3960
sI1002
g3969
sI1003
g3972
sI1004
g3974
sI1005
g3975
sI1006
g3977
sI1007
g3982
sI1008
g3983
sI1009
g3984
sI1010
g3989
sI1011
g3992
sI1012
g3994
sI1013
g3997
sI1014
g4003
sI1015
g4007
sI1016
g4012
sI1017
g4013
sI1018
g4016
sI1019
g4027
sI1020
g4031
sI1021
g4036
sI1022
g4041
sI1023
g4042
sI1024
g4044
sI1025
g4045
sI1026
g4046
sI1027
g4048
sI1028
g4054
sI1029
g4063
sI1030
g4065
sI1031
g4069
sI1032
g4073
sI1033
g4083
sI1034
g4085
sI1035
g4087
sI1036
g4090
sI1037
g4096
sI1038
g4100
sI1039
g4102
sI1040
g4104
sI1041
g4113
sI1042
g4116
sI1043
g4117
sI1044
g4122
sI1045
g4123
sI1046
g4125
sI1047
g4126
sI1048
g4128
sI1049
g4137
sI1050
g4139
sI1051
g4146
sI1052
g4152
sI1053
g4158
sI1054
g4159
sI1055
g4163
sI1056
g4168
sI1057
g4170
sI1058
g4175
sI1059
g4182
sI1060
g4185
sI1061
g4188
sI1062
g4189
sI1063
g4195
sI1064
g4200
sI1065
g4204
sI1066
g4210
sI1067
g4211
sI1068
g4216
sI1069
g4221
sI1070
g4224
sI1071
g4225
sI1072
g4228
sI1073
g4231
sI1074
g4240
sI1075
g4241
sI1076
g4243
sI1077
g4250
sI1078
g4258
sI1079
g4261
sI1080
g4263
sI1081
g4264
sI1082
g4270
sI1083
g4274
sI1084
g4278
sI1085
g4283
sI1086
g4286
sI1087
g4289
sI1088
g4297
sI1089
g4298
sI1090
g4301
sI1091
g4302
sI1092
g4307
sI1093
g4310
sI1094
g4313
sI1095
g4316
sI1096
g4318
sI1097
g4319
sI1098
g4321
sI1099
g4328
sI1100
g4331
sI1101
g4336
sI1102
g4338
sI1103
g4339
sI1104
g4342
sI1105
g4345
sI1106
g4347
sI1107
g4351
sI1108
g4355
sI1109
g4358
sI1110
g4364
sI1111
g4369
sI1112
g4378
sI1113
g4379
sI1114
g4387
sI1115
g4392
sI1116
g4395
sI1117
g4399
sI1118
g4402
sI1119
g4419
sI1120
g4427
sI1121
g4430
sI1122
g4431
sI1123
g4439
sI1124
g4448
sI1125
g4455
sI1126
g4456
sI1127
g4462
sI1128
g4463
sI1129
g4464
sI1130
g4467
sI1131
g4473
sI1132
g4477
sI1133
g4481
sI1134
g4482
sI1135
g4484
sI1136
g4488
sI1137
g4489
sI1138
g4491
sI1139
g4493
sI1140
g4496
sI1141
g4501
sI1142
g4506
sI1143
g4507
sI1144
g4510
sI1145
g4511
sI1146
g4516
sI1147
g4517
sI1148
g4520
sI1149
g4521
sI1150
g4523
sI1151
g4530
sI1152
g4534
sI1153
g4538
sI1154
g4553
sI1155
g4566
sI1156
g4571
sI1157
g4572
sI1158
g4580
sI1159
g4583
sI1160
g4586
sI1161
g4587
sI1162
g4588
sI1163
g4591
sI1164
g4597
sI1165
g4601
sI1166
g4603
sI1167
g4605
sI1168
g4607
sI1169
g4612
sI1170
g4615
sI1171
g4619
sI1172
g4620
sI1173
g4626
sI1174
g4627
sI1175
g4629
sI1176
g4634
sI1177
g4640
sI1178
g4642
sI1179
g4643
sI1180
g4645
sI1181
g4648
sI1182
g4651
sI1183
g4652
sI1184
g4653
sI1185
g4656
sI1186
g4658
sI1187
g4663
sI1188
g4664
sI1189
g4668
sI1190
g4670
sI1191
g4672
sI1192
g4682
sI1193
g4684
sI1194
g4685
sI1195
g4695
sI1196
g4699
sI1197
g4700
sI1198
g4704
sI1199
g4706
sI1200
g4710
sI1201
g4712
sI1202
g4716
sI1203
g4717
sI1204
g4731
sI1205
g4732
sI1206
g4749
sI1207
g4754
sI1208
g4755
sI1209
g4765
sI1210
g4773
sI1211
g4774
sI1212
g4781
sI1213
g4783
sI1214
g4787
sI1215
g4788
sI1216
g4797
sI1217
g4799
sI1218
g4800
sI1219
g4802
sI1220
g4803
sI1221
g4806
sI1222
g4812
sI1223
g4813
sI1224
g4825
sI1225
g4827
sI1226
g4829
sI1227
g4832
sI1228
g4844
sI1229
g4845
sI1230
g4851
sI1231
g4856
sI1232
g4860
sI1233
g4861
sI1234
g4871
sI1235
g4874
sI1236
g4881
sI1237
g4885
sI1238
g4891
sI1239
g4894
sI1240
g4895
sI1241
g4900
sI1242
g4902
sI1243
g4918
sI1244
g4924
sI1245
g4935
sI1246
g4938
sI1247
g4939
sI1248
g4944
sI1249
g4948
sI1250
g4949
sI1251
g4959
sI1252
g4963
sI1253
g4964
sI1254
g4965
sI1255
g4971
sI1256
g4975
sI1257
g4978
sI1258
g4986
sI1259
g4990
sI1260
g4995
sI1261
g5000
sI1262
g5005
sI1263
g5006
sI1264
g5012
sI1265
g5013
sI1266
g5014
sI1267
g5022
sI1268
g5030
sI1269
g5032
sI1270
g5033
sI1271
g5035
sI1272
g5037
sI1273
g5051
sI1274
g5057
sI1275
g5064
sI1276
g5067
sI1277
g5069
sI1278
g5079
sI1279
g5082
sI1280
g5085
sI1281
g5087
sI1282
g5091
sI1283
g5092
sI1284
g5093
sI1285
g5097
sI1286
g5102
sI1287
g5103
sI1288
g5108
sI1289
g5113
sI1290
g46
sI1291
g50
sI1292
g52
sI1293
g54
sI1294
g55
sI1295
g154
sI1296
g63
sI1297
g70
sI1298
g239
sI1299
g264
sI1300
g326
sI1301
g332
sI1302
g342
sI1303
g95
sI1304
g96
sI1305
g103
sI1306
g104
sI1307
g108
sI1308
g109
sI1309
g430
sI1310
g115
sI1311
g116
sI1312
g117
sI1313
g118
sI1314
g120
sI1315
g502
sI1316
g126
sI1317
g129
sI1318
g161
sI1319
g162
sI1320
g163
sI1321
g165
sI1322
g169
sI1323
g171
sI1324
g173
sI1325
g174
sI1326
g177
sI1327
g180
sI1328
g182
sI1329
g4770
sI1330
g187
sI1331
g191
sI1332
g204
sI1333
g1040
sI1334
g211
sI1335
g220
sI1336
g224
sI1337
g228
sI1338
g229
sI1339
g235
sI1340
g1209
sI1341
g237
sI1342
g243
sI1343
g246
sI1344
g249
sI1345
g253
sI1346
g254
sI1347
g255
sI1348
g259
sI1349
g263
sI1350
g266
sI1351
g268
sI1352
g270
sI1353
g1443
sI1354
g276
sI1355
g279
sI1356
g282
sI1357
g292
sI1358
g294
sI1359
g348
sI1360
g302
sI1361
g308
sI1362
g312
sI1363
g317
sI1364
g319
sI1365
g323
sI1366
g328
sI1367
g1845
sI1368
g335
sI1369
g340
sI1370
g346
sI1371
g354
sI1372
g361
sI1373
g363
sI1374
g366
sI1375
g372
sI1376
g373
sI1377
g378
sI1378
g384
sI1379
g387
sI1380
g389
sI1381
g393
sI1382
g397
sI1383
g400
sI1384
g402
sI1385
g2222
sI1386
g407
sI1387
g411
sI1388
g423
sI1389
g427
sI1390
g428
sI1391
g429
sI1392
g2455
sI1393
g447
sI1394
g449
sI1395
g451
sI1396
g452
sI1397
g2548
sI1398
g457
sI1399
g468
sI1400
g471
sI1401
g477
sI1402
g484
sI1403
g490
sI1404
g499
sI1405
g505
sI1406
g508
sI1407
g513
sI1408
g514
sI1409
g2908
sI1410
g521
sI1411
g526
sI1412
g530
sI1413
g532
sI1414
g533
sI1415
g539
sI1416
g540
sI1417
g548
sI1418
g550
sI1419
g551
sI1420
g554
sI1421
g555
sI1422
g3178
sI1423
g562
sI1424
g566
sI1425
g569
sI1426
g575
sI1427
g581
sI1428
g586
sI1429
g591
sI1430
g592
sI1431
g596
sI1432
g3383
sI1433
g598
sI1434
g600
sI1435
g603
sI1436
g3416
sI1437
g607
sI1438
g613
sI1439
g614
sI1440
g619
sI1441
g620
sI1442
g624
sI1443
g630
sI1444
g631
sI1445
g3580
sI1446
g636
sI1447
g637
sI1448
g641
sI1449
g644
sI1450
g645
sI1451
g3707
sI1452
g3725
sI1453
g666
sI1454
g668
sI1455
g669
sI1456
g674
sI1457
g680
sI1458
g683
sI1459
g690
sI1460
g3917
sI1461
g693
sI1462
g696
sI1463
g697
sI1464
g1560
sI1465
g713
sI1466
g717
sI1467
g726
sI1468
g736
sI1469
g4127
sI1470
g739
sI1471
g742
sI1472
g746
sI1473
g748
sI1474
g749
sI1475
g751
sI1476
g752
sI1477
g757
sI1478
g758
sI1479
g4288
sI1480
g773
sI1481
g776
sI1482
g777
sI1483
g778
sI1484
g780
sI1485
g794
sI1486
g799
sI1487
g809
sI1488
g4556
sI1489
g814
sI1490
g821
sI1491
g823
sI1492
g828
sI1493
g839
sI1494
g842
sI1495
g855
sI1496
g860
sI1497
g862
sI1498
g4862
sI1499
g869
sI1500
g870
sI1501
g874
sI1502
g877
sI1503
g884
sI1504
g886
sI1505
g888
sI1506
g891
sI1507
g893
sI1508
g894
sI1509
g5114
sI1510
g904
sI1511
g905
sI1512
g907
sI1513
g916
sI1514
g920
sI1515
g925
sI1516
g929
sI1517
g932
sI1518
g935
sI1519
g940
sI1520
g303
sI1521
g949
sI1522
g950
sI1523
g952
sI1524
g961
sI1525
g962
sI1526
g965
sI1527
g967
sI1528
g996
sI1529
g997
sI1530
g1006
sI1531
g1008
sI1532
g1010
sI1533
g1018
sI1534
g1023
sI1535
g1025
sI1536
g1027
sI1537
g1029
sI1538
g1031
sI1539
g901
sI1540
g1039
sI1541
g1044
sI1542
g1051
sI1543
g1052
sI1544
g1064
sI1545
g1065
sI1546
g1070
sI1547
g1073
sI1548
g1074
sI1549
g1077
sI1550
g1080
sI1551
g1083
sI1552
g1102
sI1553
g1104
sI1554
g1106
sI1555
g1110
sI1556
g1113
sI1557
g1115
sI1558
g1116
sI1559
g1439
sI1560
g1127
sI1561
g1130
sI1562
g1132
sI1563
g1135
sI1564
g1136
sI1565
g1143
sI1566
g1146
sI1567
g1154
sI1568
g1156
sI1569
g1165
sI1570
g1173
sI1571
g1176
sI1572
g1185
sI1573
g1192
sI1574
g1199
sI1575
g1938
sI1576
g1203
sI1577
g1205
sI1578
g1207
sI1579
g1212
sI1580
g1220
sI1581
g1224
sI1582
g1228
sI1583
g2079
sI1584
g1238
sI1585
g1250
sI1586
g2217
sI1587
g1253
sI1588
g1254
sI1589
g1256
sI1590
g1261
sI1591
g1266
sI1592
g2303
sI1593
g1270
sI1594
g1272
sI1595
g1276
sI1596
g1280
sI1597
g1281
sI1598
g1282
sI1599
g1285
sI1600
g1290
sI1601
g1295
sI1602
g1298
sI1603
g1309
sI1604
g1310
sI1605
g1311
sI1606
g1314
sI1607
g1328
sI1608
g1331
sI1609
g1332
sI1610
g1338
sI1611
g2769
sI1612
g1347
sI1613
g1357
sI1614
g1367
sI1615
g1372
sI1616
g1373
sI1617
g1376
sI1618
g1386
sI1619
g1395
sI1620
g1398
sI1621
g1400
sI1622
g3171
sI1623
g1407
sI1624
g3190
sI1625
g1411
sI1626
g1412
sI1627
g1421
sI1628
g1423
sI1629
g1424
sI1630
g1430
sI1631
g1181
sI1632
g727
sI1633
g1454
sI1634
g1455
sI1635
g1462
sI1636
g1469
sI1637
g1470
sI1638
g1471
sI1639
g3604
sI1640
g1481
sI1641
g1486
sI1642
g1488
sI1643
g1491
sI1644
g1494
sI1645
g1497
sI1646
g1506
sI1647
g1517
sI1648
g1522
sI1649
g1528
sI1650
g1531
sI1651
g3938
sI1652
g1534
sI1653
g1537
sI1654
g1538
sI1655
g1541
sI1656
g1542
sI1657
g4021
sI1658
g1552
sI1659
g1554
sI1660
g1557
sI1661
g1558
sI1662
g1566
sI1663
g1569
sI1664
g1575
sI1665
g1576
sI1666
g4217
sI1667
g1579
sI1668
g1581
sI1669
g1590
sI1670
g1593
sI1671
g1599
sI1672
g4389
sI1673
g1616
sI1674
g1618
sI1675
g1625
sI1676
g1629
sI1677
g1631
sI1678
g1633
sI1679
g1637
sI1680
g1640
sI1681
g1646
sI1682
g1652
sI1683
g1661
sI1684
g1663
sI1685
g1666
sI1686
g1668
sI1687
g1672
sI1688
g1673
sI1689
g1674
sI1690
g4780
sI1691
g1677
sI1692
g1678
sI1693
g1679
sI1694
g1684
sI1695
g1685
sI1696
g1686
sI1697
g1687
sI1698
g4841
sI1699
g1691
sI1700
g1692
sI1701
g4879
sI1702
g1698
sI1703
g1699
sI1704
g1702
sI1705
g1703
sI1706
g1704
sI1707
g1712
sI1708
g1713
sI1709
g1721
sI1710
g1722
sI1711
g1729
sI1712
g5104
sI1713
g1748
sI1714
g132
sI1715
g1774
sI1716
g1776
sI1717
g1779
sI1718
g1785
sI1719
g334
sI1720
g4934
sI1721
g1792
sI1722
g1804
sI1723
g1809
sI1724
g1817
sI1725
g1821
sI1726
g1829
sI1727
g568
sI1728
g1836
sI1729
g1843
sI1730
g1846
sI1731
g1850
sI1732
g1853
sI1733
g1855
sI1734
g1857
sI1735
g1862
sI1736
g1864
sI1737
g819
sI1738
g1870
sI1739
g1873
sI1740
g1890
sI1741
g1893
sI1742
g1894
sI1743
g1896
sI1744
g1898
sI1745
g1902
sI1746
g1909
sI1747
g1912
sI1748
g1914
sI1749
g1922
sI1750
g1928
sI1751
g1288
sI1752
g1941
sI1753
g1944
sI1754
g1949
sI1755
g1953
sI1756
g1954
sI1757
g1958
sI1758
g1465
sI1759
g1968
sI1760
g1504
sI1761
g1972
sI1762
g1973
sI1763
g1975
sI1764
g1977
sI1765
g1985
sI1766
g1989
sI1767
g1990
sI1768
g1991
sI1769
g1995
sI1770
g1996
sI1771
g745
sI1772
g1999
sI1773
g2006
sI1774
g2009
sI1775
g1755
sI1776
g2017
sI1777
g2023
sI1778
g2025
sI1779
g2030
sI1780
g4866
sI1781
g2038
sI1782
g2046
sI1783
g2051
sI1784
g2055
sI1785
g2061
sI1786
g2070
sI1787
g2076
sI1788
g2128
sI1789
g2080
sI1790
g2085
sI1791
g2086
sI1792
g2089
sI1793
g2090
sI1794
g2098
sI1795
g2104
sI1796
g2109
sI1797
g2117
sI1798
g2119
sI1799
g2122
sI1800
g2390
sI1801
g2133
sI1802
g2135
sI1803
g2136
sI1804
g2137
sI1805
g2138
sI1806
g2141
sI1807
g2142
sI1808
g2145
sI1809
g2155
sI1810
g2161
sI1811
g2165
sI1812
g2167
sI1813
g2168
sI1814
g2696
sI1815
g2179
sI1816
g2181
sI1817
g2182
sI1818
g2766
sI1819
g2196
sI1820
g2197
sI1821
g2200
sI1822
g2882
sI1823
g2209
sI1824
g2215
sI1825
g2221
sI1826
g2225
sI1827
g2226
sI1828
g2229
sI1829
g2251
sI1830
g2257
sI1831
g2262
sI1832
g2268
sI1833
g2271
sI1834
g3338
sI1835
g2279
sI1836
g2286
sI1837
g3418
sI1838
g2295
sI1839
g2299
sI1840
g2301
sI1841
g2304
sI1842
g2305
sI1843
g2309
sI1844
g2310
sI1845
g2312
sI1846
g3545
sI1847
g2315
sI1848
g2316
sI1849
g3571
sI1850
g3575
sI1851
g2324
sI1852
g2329
sI1853
g2338
sI1854
g2344
sI1855
g2346
sI1856
g2353
sI1857
g2354
sI1858
g2362
sI1859
g2363
sI1860
g2368
sI1861
g2374
sI1862
g3991
sI1863
g2386
sI1864
g2394
sI1865
g2396
sI1866
g2398
sI1867
g2405
sI1868
g2406
sI1869
g2409
sI1870
g2411
sI1871
g2412
sI1872
g2418
sI1873
g2421
sI1874
g2429
sI1875
g2432
sI1876
g4397
sI1877
g2447
sI1878
g2448
sI1879
g2450
sI1880
g2452
sI1881
g4823
sI1882
g4471
sI1883
g4480
sI1884
g2468
sI1885
g2470
sI1886
g2479
sI1887
g2481
sI1888
g2482
sI1889
g2483
sI1890
g2484
sI1891
g2486
sI1892
g2494
sI1893
g2495
sI1894
g2496
sI1895
g2499
sI1896
g2501
sI1897
g4847
sI1898
g2517
sI1899
g4943
sI1900
g4989
sI1901
g2538
sI1902
g2541
sI1903
g2542
sI1904
g2551
sI1905
g2552
sI1906
g58
sI1907
g2563
sI1908
g2564
sI1909
g2582
sI1910
g200
sI1911
g2585
sI1912
g221
sI1913
g225
sI1914
g2596
sI1915
g2597
sI1916
g2603
sI1917
g2606
sI1918
g2611
sI1919
g380
sI1920
g2619
sI1921
g2623
sI1922
g2625
sI1923
g2626
sI1924
g2629
sI1925
g516
sI1926
g522
sI1927
g2638
sI1928
g2639
sI1929
g2651
sI1930
g2662
sI1931
g2663
sI1932
g2666
sI1933
g782
sI1934
g2675
sI1935
g800
sI1936
g2678
sI1937
g2682
sI1938
g2694
sI1939
g2701
sI1940
g2704
sI1941
g2706
sI1942
g2708
sI1943
g2728
sI1944
g2735
sI1945
g2739
sI1946
g2740
sI1947
g2742
sI1948
g2748
sI1949
g2751
sI1950
g2754
sI1951
g2756
sI1952
g2757
sI1953
g2759
sI1954
g2763
sI1955
g2764
sI1956
g3412
sI1957
g2777
sI1958
g2778
sI1959
g2781
sI1960
g2789
sI1961
g2792
sI1962
g1814
sI1963
g2798
sI1964
g2799
sI1965
g2805
sI1966
g2806
sI1967
g2809
sI1968
g2812
sI1969
g2828
sI1970
g1753
sI1971
g2840
sI1972
g2841
sI1973
g2844
sI1974
g2845
sI1975
g2847
sI1976
g1794
sI1977
g2850
sI1978
g2863
sI1979
g2865
sI1980
g2871
sI1981
g2872
sI1982
g2879
sI1983
g2880
sI1984
g2881
sI1985
g2883
sI1986
g2884
sI1987
g2888
sI1988
g2028
sI1989
g2895
sI1990
g2900
sI1991
g2901
sI1992
g2904
sI1993
g2906
sI1994
g2914
sI1995
g3437
sI1996
g2924
sI1997
g2930
sI1998
g2933
sI1999
g2939
sI2000
g2941
sI2001
g2942
sI2002
g2944
sI2003
g2946
sI2004
g2948
sI2005
g2949
sI2006
g2957
sI2007
g2958
sI2008
g2961
sI2009
g2964
sI2010
g2965
sI2011
g2973
sI2012
g2975
sI2013
g2977
sI2014
g2978
sI2015
g2979
sI2016
g2986
sI2017
g2989
sI2018
g2996
sI2019
g2660
sI2020
g2999
sI2021
g3001
sI2022
g3008
sI2023
g3009
sI2024
g3013
sI2025
g3015
sI2026
g3018
sI2027
g2461
sI2028
g2810
sI2029
g3040
sI2030
g3041
sI2031
g3043
sI2032
g3055
sI2033
g3070
sI2034
g3072
sI2035
g3143
sI2036
g3079
sI2037
g3081
sI2038
g3084
sI2039
g3088
sI2040
g3093
sI2041
g3095
sI2042
g3349
sI2043
g3109
sI2044
g3113
sI2045
g3117
sI2046
g3120
sI2047
g3121
sI2048
g3122
sI2049
g3125
sI2050
g3126
sI2051
g3130
sI2052
g3134
sI2053
g3135
sI2054
g3138
sI2055
g3140
sI2056
g3141
sI2057
g3142
sI2058
g3149
sI2059
g3151
sI2060
g3159
sI2061
g3162
sI2062
g3179
sI2063
g3183
sI2064
g3187
sI2065
g3188
sI2066
g3197
sI2067
g3198
sI2068
g3201
sI2069
g3214
sI2070
g3217
sI2071
g1641
sI2072
g3222
sI2073
g3224
sI2074
g3236
sI2075
g3238
sI2076
g3243
sI2077
g3248
sI2078
g3250
sI2079
g3259
sI2080
g3261
sI2081
g3263
sI2082
g4248
sI2083
g3272
sI2084
g3275
sI2085
g3278
sI2086
g3280
sI2087
g5047
sI2088
g3285
sI2089
g3289
sI2090
g3293
sI2091
g3298
sI2092
g3300
sI2093
g3301
sI2094
g3306
sI2095
g3312
sI2096
g3313
sI2097
g3314
sI2098
g3316
sI2099
g3317
sI2100
g3320
sI2101
g3322
sI2102
g3328
sI2103
g3330
sI2104
g3332
sI2105
g3334
sI2106
g3337
sI2107
g3344
sI2108
g4756
sI2109
g3355
sI2110
g4830
sI2111
g3362
sI2112
g3365
sI2113
g3218
sI2114
g3393
sI2115
g5066
sI2116
g3400
sI2117
g3408
sI2118
g3414
sI2119
g3419
sI2120
g3423
sI2121
g3426
sI2122
g218
sI2123
g257
sI2124
g3446
sI2125
g3449
sI2126
g3455
sI2127
g3458
sI2128
g3460
sI2129
g3461
sI2130
g3463
sI2131
g3465
sI2132
g3467
sI2133
g3468
sI2134
g3478
sI2135
g3482
sI2136
g3484
sI2137
g3486
sI2138
g3487
sI2139
g3490
sI2140
g3499
sI2141
g3504
sI2142
g3506
sI2143
g3507
sI2144
g3508
sI2145
g3510
sI2146
g3511
sI2147
g3513
sI2148
g3514
sI2149
g805
sI2150
g3527
sI2151
g3528
sI2152
g863
sI2153
g3535
sI2154
g3537
sI2155
g3539
sI2156
g3547
sI2157
g982
sI2158
g3554
sI2159
g3559
sI2160
g3560
sI2161
g3562
sI2162
g3563
sI2163
g3564
sI2164
g3565
sI2165
g3567
sI2166
g3573
sI2167
g1097
sI2168
g3582
sI2169
g3584
sI2170
g3590
sI2171
g3595
sI2172
g3599
sI2173
g1262
sI2174
g140
sI2175
g3612
sI2176
g3616
sI2177
g3625
sI2178
g3629
sI2179
g3631
sI2180
g3632
sI2181
g3637
sI2182
g3638
sI2183
g3641
sI2184
g3646
sI2185
g3665
sI2186
g4877
sI2187
g1639
sI2188
g3672
sI2189
g3673
sI2190
g3674
sI2191
g3678
sI2192
g1735
sI2193
g3683
sI2194
g3686
sI2195
g3687
sI2196
g1800
sI2197
g3691
sI2198
g3694
sI2199
g3695
sI2200
g1833
sI2201
g3698
sI2202
g3701
sI2203
g1875
sI2204
g3706
sI2205
g3711
sI2206
g1924
sI2207
g3716
sI2208
g3718
sI2209
g3720
sI2210
g3732
sI2211
g3738
sI2212
g3739
sI2213
g3745
sI2214
g3746
sI2215
g2116
sI2216
g3750
sI2217
g3751
sI2218
g3757
sI2219
g3758
sI2220
g3762
sI2221
g3763
sI2222
g3767
sI2223
g3772
sI2224
g3774
sI2225
g3778
sI2226
g3782
sI2227
g3783
sI2228
g3785
sI2229
g3803
sI2230
g3812
sI2231
g3830
sI2232
g3833
sI2233
g3834
sI2234
g3839
sI2235
g3842
sI2236
g3844
sI2237
g3845
sI2238
g3850
sI2239
g3851
sI2240
g3856
sI2241
g3862
sI2242
g3867
sI2243
g2755
sI2244
g3871
sI2245
g3874
sI2246
g3877
sI2247
g3879
sI2248
g318
sI2249
g3881
sI2250
g3884
sI2251
g3885
sI2252
g3888
sI2253
g3890
sI2254
g3891
sI2255
g3894
sI2256
g2553
sI2257
g3900
sI2258
g3905
sI2259
g3911
sI2260
g3912
sI2261
g3921
sI2262
g3927
sI2263
g3928
sI2264
g3933
sI2265
g3937
sI2266
g3939
sI2267
g3942
sI2268
g772
sI2269
g3946
sI2270
g3947
sI2271
g3948
sI2272
g3951
sI2273
g3956
sI2274
g3959
sI2275
g3964
sI2276
g3966
sI2277
g3967
sI2278
g3968
sI2279
g3976
sI2280
g3981
sI2281
g143
sI2282
g3471
sI2283
g4009
sI2284
g3587
sI2285
g4017
sI2286
g4020
sI2287
g3620
sI2288
g4023
sI2289
g4026
sI2290
g4030
sI2291
g4033
sI2292
g4034
sI2293
g4035
sI2294
g4040
sI2295
g3747
sI2296
g4043
sI2297
g4050
sI2298
g2897
sI2299
g4059
sI2300
g3898
sI2301
g4068
sI2302
g4047
sI2303
g4071
sI2304
g4079
sI2305
g4080
sI2306
g4082
sI2307
g4053
sI2308
g4094
sI2309
g4098
sI2310
g4099
sI2311
g4132
sI2312
g4107
sI2313
g4110
sI2314
g4213
sI2315
g4118
sI2316
g4121
sI2317
g4272
sI2318
g4131
sI2319
g4134
sI2320
g4135
sI2321
g4141
sI2322
g4142
sI2323
g4145
sI2324
g4150
sI2325
g4154
sI2326
g4165
sI2327
g4167
sI2328
g4177
sI2329
g4675
sI2330
g4187
sI2331
g4691
sI2332
g4192
sI2333
g4199
sI2334
g4205
sI2335
g4206
sI2336
g4207
sI2337
g4215
sI2338
g4220
sI2339
g4232
sI2340
g4235
sI2341
g4236
sI2342
g4245
sI2343
g4253
sI2344
g4255
sI2345
g4259
sI2346
g4260
sI2347
g4262
sI2348
g4273
sI2349
g4280
sI2350
g4282
sI2351
g4285
sI2352
g4287
sI2353
g4294
sI2354
g4304
sI2355
g4306
sI2356
g4309
sI2357
g367
sI2358
g4312
sI2359
g382
sI2360
g409
sI2361
g4320
sI2362
g4326
sI2363
g4327
sI2364
g4329
sI2365
g4334
sI2366
g4335
sI2367
g510
sI2368
g4343
sI2369
g4348
sI2370
g4352
sI2371
g4354
sI2372
g4360
sI2373
g4375
sI2374
g4377
sI2375
g4380
sI2376
g4385
sI2377
g4391
sI2378
g4393
sI2379
g857
sI2380
g4398
sI2381
g4400
sI2382
g4405
sI2383
g4410
sI2384
g4414
sI2385
g4416
sI2386
g4421
sI2387
g2097
sI2388
g4433
sI2389
g4441
sI2390
g4442
sI2391
g4445
sI2392
g4446
sI2393
g1166
sI2394
g4453
sI2395
g4454
sI2396
g4459
sI2397
g4461
sI2398
g4466
sI2399
g4469
sI2400
g1313
sI2401
g4474
sI2402
g4478
sI2403
g3713
sI2404
g4483
sI2405
g4486
sI2406
g4490
sI2407
g4495
sI2408
g1417
sI2409
g4500
sI2410
g4502
sI2411
g4505
sI2412
g4509
sI2413
g4513
sI2414
g4515
sI2415
g4518
sI2416
g4524
sI2417
g4526
sI2418
g4533
sI2419
g1647
sI2420
g4537
sI2421
g4541
sI2422
g4543
sI2423
g4546
sI2424
g4547
sI2425
g4552
sI2426
g4557
sI2427
g4560
sI2428
g4568
sI2429
g4582
sI2430
g1947
sI2431
g1957
sI2432
g4593
sI2433
g958
sI2434
g4609
sI2435
g1229
sI2436
g4617
sI2437
g4618
sI2438
g4623
sI2439
g4624
sI2440
g4630
sI2441
g4633
sI2442
g4636
sI2443
g4637
sI2444
g2280
sI2445
g4644
sI2446
g4647
sI2447
g4654
sI2448
g4657
sI2449
g245
sI2450
g4661
sI2451
g4667
sI2452
g4108
sI2453
g4669
sI2454
g4671
sI2455
g4677
sI2456
g4681
sI2457
g4698
sI2458
g4701
sI2459
g4707
sI2460
g4711
sI2461
g4730
sI2462
g4737
sI2463
g4744
sI2464
g4745
sI2465
g4748
sI2466
g4751
sI2467
g4752
sI2468
g4753
sI2469
g4757
sI2470
g4766
sI2471
g4767
sI2472
g4771
sI2473
g858
sI2474
g4775
sI2475
g4777
sI2476
g4779
sI2477
g4784
sI2478
g4791
sI2479
g3196
sI2480
g3227
sI2481
g4805
sI2482
g4810
sI2483
g2027
sI2484
g4816
sI2485
g4831
sI2486
g4836
sI2487
g4840
sI2488
g3462
sI2489
g4271
sI2490
g4849
sI2491
g4854
sI2492
g3526
sI2493
g4857
sI2494
g3384
sI2495
g4868
sI2496
g4872
sI2497
g4873
sI2498
g4878
sI2499
g4882
sI2500
g4884
sI2501
g4889
sI2502
g4890
sI2503
g4904
sI2504
g4906
sI2505
g4907
sI2506
g4912
sI2507
g4923
sI2508
g4930
sI2509
g4931
sI2510
g4937
sI2511
g4941
sI2512
g2327
sI2513
g4946
sI2514
g4952
sI2515
g4960
sI2516
g4961
sI2517
g4967
sI2518
g4973
sI2519
g4974
sI2520
g4980
sI2521
g5110
sI2522
g4987
sI2523
g4424
sI2524
g4991
sI2525
g4997
sI2526
g5004
sI2527
g5008
sI2528
g5011
sI2529
g5015
sI2530
g5018
sI2531
g5023
sI2532
g5026
sI2533
g5029
sI2534
g4659
sI2535
g5036
sI2536
g5039
sI2537
g5040
sI2538
g5042
sI2539
g5043
sI2540
g5045
sI2541
g5046
sI2542
g5049
sI2543
g5050
sI2544
g5052
sI2545
g5054
sI2546
g5055
sI2547
g5058
sI2548
g5060
sI2549
g5065
sI2550
g2172
sI2551
g5068
sI2552
g5081
sI2553
g5083
sI2554
g4966
sI2555
g5096
sI2556
g5099
sI2557
g5106
sI2558
g5107
sI2559
g5086
sI2560
g53
sI2561
g2036
sI2562
g166
sI2563
g66
sI2564
g67
sI2565
g2801
sI2566
g80
sI2567
g82
sI2568
g86
sI2569
g94
sI2570
g4494
sI2571
g101
sI2572
g102
sI2573
g1840
sI2574
g4778
sI2575
g3577
sI2576
g112
sI2577
g123
sI2578
g134
sI2579
g136
sI2580
g139
sI2581
g141
sI2582
g150
sI2583
g153
sI2584
g155
sI2585
g158
sI2586
g167
sI2587
g168
sI2588
g170
sI2589
g853
sI2590
g865
sI2591
g903
sI2592
g186
sI2593
g190
sI2594
g994
sI2595
g201
sI2596
g902
sI2597
g215
sI2598
g217
sI2599
g222
sI2600
g3255
sI2601
g1826
sI2602
g1232
sI2603
g240
sI2604
g242
sI2605
g1273
sI2606
g252
sI2607
g1334
sI2608
g258
sI2609
g260
sI2610
g1410
sI2611
g267
sI2612
g271
sI2613
g1464
sI2614
g277
sI2615
g1519
sI2616
g290
sI2617
g4763
sI2618
g297
sI2619
g304
sI2620
g305
sI2621
g307
sI2622
g320
sI2623
g322
sI2624
g1751
sI2625
g329
sI2626
g333
sI2627
g336
sI2628
g337
sI2629
g350
sI2630
g357
sI2631
g360
sI2632
g362
sI2633
g364
sI2634
g368
sI2635
g2082
sI2636
g386
sI2637
g2710
sI2638
g391
sI2639
g395
sI2640
g399
sI2641
g401
sI2642
g4933
sI2643
g403
sI2644
g405
sI2645
g408
sI2646
g413
sI2647
g418
sI2648
g422
sI2649
g424
sI2650
g425
sI2651
g2391
sI2652
g2401
sI2653
g434
sI2654
g439
sI2655
g440
sI2656
g2467
sI2657
g444
sI2658
g2531
sI2659
g463
sI2660
g465
sI2661
g2677
sI2662
g3581
sI2663
g2753
sI2664
g492
sI2665
g493
sI2666
g494
sI2667
g497
sI2668
g500
sI2669
g501
sI2670
g503
sI2671
g2860
sI2672
g2869
sI2673
g519
sI2674
g520
sI2675
g523
sI2676
g2932
sI2677
g528
sI2678
g2988
sI2679
g534
sI2680
g2575
sI2681
g541
sI2682
g547
sI2683
g549
sI2684
g1761
sI2685
g557
sI2686
g561
sI2687
g3192
sI2688
g3213
sI2689
g567
sI2690
g572
sI2691
g573
sI2692
g574
sI2693
g576
sI2694
g577
sI2695
g3318
sI2696
g3327
sI2697
g594
sI2698
g595
sI2699
g2587
sI2700
g601
sI2701
g606
sI2702
g612
sI2703
g616
sI2704
g617
sI2705
g618
sI2706
g3501
sI2707
g621
sI2708
g623
sI2709
g627
sI2710
g1715
sI2711
g3613
sI2712
g650
sI2713
g657
sI2714
g3733
sI2715
g665
sI2716
g671
sI2717
g3795
sI2718
g675
sI2719
g677
sI2720
g681
sI2721
g686
sI2722
g699
sI2723
g3971
sI2724
g705
sI2725
g708
sI2726
g709
sI2727
g715
sI2728
g719
sI2729
g720
sI2730
g721
sI2731
g722
sI2732
g729
sI2733
g730
sI2734
g732
sI2735
g733
sI2736
g734
sI2737
g738
sI2738
g744
sI2739
g4176
sI2740
g4202
sI2741
g753
sI2742
g4244
sI2743
g761
sI2744
g762
sI2745
g766
sI2746
g768
sI2747
g769
sI2748
g771
sI2749
g4386
sI2750
g791
sI2751
g796
sI2752
g797
sI2753
g811
sI2754
g813
sI2755
g1446
sI2756
g816
sI2757
g817
sI2758
g820
sI2759
g824
sI2760
g832
sI2761
g837
sI2762
g4852
sI2763
g4792
sI2764
g4828
sI2765
g875
sI2766
g878
sI2767
g879
sI2768
g881
sI2769
g1324
sI2770
g885
sI2771
g4598
sI2772
g895
sI2773
g899
sI2774
g906
sI2775
g4438
sI2776
g910
sI2777
g172
sI2778
g926
sI2779
g931
sI2780
g942
sI2781
g945
sI2782
g2954
sI2783
g948
sI2784
g1956
sI2785
g4703
sI2786
g953
sI2787
g385
sI2788
g651
sI2789
g964
sI2790
g972
sI2791
g974
sI2792
g976
sI2793
g980
sI2794
g984
sI2795
g987
sI2796
g991
sI2797
g995
sI2798
g1767
sI2799
g1214
sI2800
g1009
sI2801
g1011
sI2802
g1014
sI2803
g1021
sI2804
g1024
sI2805
g1028
sI2806
g1042
sI2807
g1046
sI2808
g1062
sI2809
g1086
sI2810
g1067
sI2811
g1072
sI2812
g1076
sI2813
g1089
sI2814
g1091
sI2815
g1096
sI2816
g1101
sI2817
g1109
sI2818
g1118
sI2819
g1365
sI2820
g1458
sI2821
g1501
sI2822
g1142
sI2823
g1145
sI2824
g1586
sI2825
g1148
sI2826
g1159
sI2827
g1164
sI2828
g1731
sI2829
g1170
sI2830
g1172
sI2831
g1174
sI2832
g1177
sI2833
g1178
sI2834
g1183
sI2835
g1184
sI2836
g1841
sI2837
g1187
sI2838
g1189
sI2839
g1190
sI2840
g1195
sI2841
g1921
sI2842
g4887
sI2843
g1201
sI2844
g4814
sI2845
g1204
sI2846
g1208
sI2847
g1210
sI2848
g1980
sI2849
g1219
sI2850
g1222
sI2851
g2063
sI2852
g2511
sI2853
g1239
sI2854
g1248
sI2855
g2194
sI2856
g1252
sI2857
g1255
sI2858
g2237
sI2859
g1258
sI2860
g2266
sI2861
g2297
sI2862
g1267
sI2863
g1271
sI2864
g1277
sI2865
g1289
sI2866
g1292
sI2867
g1302
sI2868
g1304
sI2869
g1308
sI2870
g1312
sI2871
g1318
sI2872
g1321
sI2873
g1330
sI2874
g1336
sI2875
g1348
sI2876
g1351
sI2877
g1352
sI2878
g1354
sI2879
g1358
sI2880
g2854
sI2881
g1366
sI2882
g1378
sI2883
g1383
sI2884
g1385
sI2885
g1388
sI2886
g1390
sI2887
g1393
sI2888
g1396
sI2889
g1409
sI2890
g3209
sI2891
g1415
sI2892
g1418
sI2893
g3831
sI2894
g1426
sI2895
g1384
sI2896
g1436
sI2897
g1437
sI2898
g3352
sI2899
g1441
sI2900
g1442
sI2901
g3420
sI2902
g1450
sI2903
g1451
sI2904
g3475
sI2905
g1459
sI2906
g1468
sI2907
g3531
sI2908
g1478
sI2909
g1484
sI2910
g1485
sI2911
g3662
sI2912
g1493
sI2913
g431
sI2914
g1495
sI2915
g1499
sI2916
g1500
sI2917
g1507
sI2918
g1509
sI2919
g1510
sI2920
g1512
sI2921
g1514
sI2922
g1515
sI2923
g1516
sI2924
g3840
sI2925
g1523
sI2926
g1526
sI2927
g3924
sI2928
g4736
sI2929
g1545
sI2930
g3818
sI2931
g1550
sI2932
g4061
sI2933
g1555
sI2934
g4088
sI2935
g1562
sI2936
g1564
sI2937
g1568
sI2938
g1578
sI2939
g4239
sI2940
g1580
sI2941
g1595
sI2942
g593
sI2943
g4407
sI2944
g1605
sI2945
g1613
sI2946
g1621
sI2947
g1622
sI2948
g695
sI2949
g1635
sI2950
g1643
sI2951
g1644
sI2952
g1645
sI2953
g1651
sI2954
g1653
sI2955
g1656
sI2956
g927
sI2957
g4720
sI2958
g4724
sI2959
g1664
sI2960
g1665
sI2961
g2980
sI2962
g1683
sI2963
g4818
sI2964
g4822
sI2965
g1689
sI2966
g4865
sI2967
g2352
sI2968
g4901
sI2969
g4905
sI2970
g1708
sI2971
g1709
sI2972
g1710
sI2973
g1717
sI2974
g4994
sI2975
g3025
sI2976
g1727
sI2977
g1742
sI2978
g1746
sI2979
g97
sI2980
g5028
sI2981
g1764
sI2982
g1765
sI2983
g1766
sI2984
g227
sI2985
g1778
sI2986
g1780
sI2987
g1884
sI2988
g1784
sI2989
g1791
sI2990
g1795
sI2991
g1801
sI2992
g420
sI2993
g1805
sI2994
g1812
sI2995
g1815
sI2996
g518
sI2997
g535
sI2998
g1825
sI2999
g1827
sI3000
g1828
sI3001
g1831
sI3002
g1832
sI3003
g1834
sI3004
g1835
sI3005
g638
sI3006
g1847
sI3007
g1848
sI3008
g1849
sI3009
g1854
sI3010
g1856
sI3011
g2067
sI3012
g1859
sI3013
g2264
sI3014
g1874
sI3015
g1878
sI3016
g2154
sI3017
g1907
sI3018
g1908
sI3019
g1092
sI3020
g1917
sI3021
g1918
sI3022
g1919
sI3023
g1920
sI3024
g1151
sI3025
g3480
sI3026
g1931
sI3027
g1935
sI3028
g1939
sI3029
g3185
sI3030
g1946
sI3031
g1948
sI3032
g1952
sI3033
g1960
sI3034
g1971
sI3035
g1559
sI3036
g1983
sI3037
g1993
sI3038
g1655
sI3039
g1997
sI3040
g1718
sI3041
g1741
sI3042
g2015
sI3043
g2021
sI3044
g1822
sI3045
g2032
sI3046
g2033
sI3047
g2037
sI3048
g1950
sI3049
g2007
sI3050
g2068
sI3051
g2071
sI3052
g2073
sI3053
g2115
sI3054
g2084
sI3055
g2173
sI3056
g2088
sI3057
g2096
sI3058
g2100
sI3059
g2106
sI3060
g546
sI3061
g2337
sI3062
g2345
sI3063
g2120
sI3064
g2124
sI3065
g2131
sI3066
g2132
sI3067
g2472
sI3068
g3963
sI3069
g2521
sI3070
g2157
sI3071
g2160
sI3072
g2164
sI3073
g392
sI3074
g2170
sI3075
g2171
sI3076
g2174
sI3077
g2175
sI3078
g2176
sI3079
g2178
sI3080
g2184
sI3081
g3993
sI3082
g2189
sI3083
g2846
sI3084
g2203
sI3085
g2208
sI3086
g2934
sI3087
g2210
sI3088
g2211
sI3089
g2213
sI3090
g2216
sI3091
g2218
sI3092
g2220
sI3093
g3005
sI3094
g2235
sI3095
g2238
sI3096
g2241
sI3097
g2242
sI3098
g2243
sI3099
g2245
sI3100
g2247
sI3101
g2249
sI3102
g2250
sI3103
g2252
sI3104
g2253
sI3105
g2254
sI3106
g2258
sI3107
g3279
sI3108
g2267
sI3109
g2270
sI3110
g3428
sI3111
g4293
sI3112
g2277
sI3113
g2281
sI3114
g2289
sI3115
g2290
sI3116
g2292
sI3117
g2293
sI3118
g2296
sI3119
g2298
sI3120
g2306
sI3121
g2311
sI3122
g3542
sI3123
g2314
sI3124
g2320
sI3125
g2323
sI3126
g2328
sI3127
g3649
sI3128
g2336
sI3129
g365
sI3130
g1696
sI3131
g2341
sI3132
g2342
sI3133
g2348
sI3134
g2351
sI3135
g2357
sI3136
g2359
sI3137
g2371
sI3138
g2375
sI3139
g2376
sI3140
g2381
sI3141
g2383
sI3142
g2384
sI3143
g2385
sI3144
g4055
sI3145
g4149
sI3146
g2402
sI3147
g880
sI3148
g4821
sI3149
g4275
sI3150
g2426
sI3151
g2430
sI3152
g2431
sI3153
g2443
sI3154
g2444
sI3155
g2449
sI3156
g2462
sI3157
g2464
sI3158
g2466
sI3159
g2473
sI3160
g2478
sI3161
g4713
sI3162
g2490
sI3163
g2493
sI3164
g2497
sI3165
g2500
sI3166
g2505
sI3167
g2510
sI3168
g2515
sI3169
g2527
sI3170
g2529
sI3171
g2530
sI3172
g4789
sI3173
g2534
sI3174
g2543
sI3175
g2547
sI3176
g2550
sI3177
g4092
sI3178
g2554
sI3179
g2560
sI3180
g2569
sI3181
g2571
sI3182
g2573
sI3183
g2576
sI3184
g3889
sI3185
g2579
sI3186
g193
sI3187
g216
sI3188
g2593
sI3189
g2594
sI3190
g2608
sI3191
g2612
sI3192
g2614
sI3193
g2617
sI3194
g3661
sI3195
g2624
sI3196
g1858
sI3197
g2627
sI3198
g747
sI3199
g2631
sI3200
g2816
sI3201
g2637
sI3202
g4527
sI3203
g2641
sI3204
g1736
sI3205
g2648
sI3206
g2650
sI3207
g1994
sI3208
g2656
sI3209
g2657
sI3210
g2659
sI3211
g731
sI3212
g2669
sI3213
g2671
sI3214
g2672
sI3215
g810
sI3216
g2681
sI3217
g825
sI3218
g2685
sI3219
g2686
sI3220
g2688
sI3221
g2691
sI3222
g2693
sI3223
g2697
sI3224
g2698
sI3225
g2700
sI3226
g3518
sI3227
g2707
sI3228
g1020
sI3229
g2722
sI3230
g2725
sI3231
g2727
sI3232
g4374
sI3233
g2731
sI3234
g1105
sI3235
g2737
sI3236
g2738
sI3237
g2744
sI3238
g2745
sI3239
g2746
sI3240
g2747
sI3241
g4942
sI3242
g1235
sI3243
g128
sI3244
g2760
sI3245
g4074
sI3246
g2772
sI3247
g2773
sI3248
g2787
sI3249
g2797
sI3250
g4632
sI3251
g2800
sI3252
g2803
sI3253
g2804
sI3254
g2807
sI3255
g2811
sI3256
g2815
sI3257
g1607
sI3258
g2819
sI3259
g2821
sI3260
g2822
sI3261
g2834
sI3262
g2835
sI3263
g2837
sI3264
g4649
sI3265
g1783
sI3266
g2849
sI3267
g2852
sI3268
g2859
sI3269
g660
sI3270
g2861
sI3271
g2862
sI3272
g2864
sI3273
g1889
sI3274
g1915
sI3275
g1936
sI3276
g2875
sI3277
g2876
sI3278
g2877
sI3279
g2878
sI3280
g1970
sI3281
g2010
sI3282
g2892
sI3283
g2039
sI3284
g2053
sI3285
g2898
sI3286
g2091
sI3287
g2907
sI3288
g2912
sI3289
g2228
sI3290
g2925
sI3291
g2927
sI3292
g2931
sI3293
g2935
sI3294
g458
sI3295
g2945
sI3296
g2960
sI3297
g2962
sI3298
g2966
sI3299
g2968
sI3300
g2970
sI3301
g2972
sI3302
g2981
sI3303
g2568
sI3304
g2992
sI3305
g2993
sI3306
g2998
sI3307
g2723
sI3308
g3011
sI3309
g2083
sI3310
g3023
sI3311
g2820
sI3312
g3027
sI3313
g3028
sI3314
g3031
sI3315
g3033
sI3316
g3037
sI3317
g3054
sI3318
g3056
sI3319
g3058
sI3320
g3067
sI3321
g3069
sI3322
g3071
sI3323
g3073
sI3324
g3087
sI3325
g3283
sI3326
g3287
sI3327
g3296
sI3328
g3097
sI3329
g3103
sI3330
g3106
sI3331
g3111
sI3332
g1157
sI3333
g4646
sI3334
g3438
sI3335
g3131
sI3336
g3494
sI3337
g3136
sI3338
g3137
sI3339
g3139
sI3340
g3516
sI3341
g2156
sI3342
g3152
sI3343
g3153
sI3344
g3173
sI3345
g3176
sI3346
g3177
sI3347
g3181
sI3348
g3231
sI3349
g3769
sI3350
g3186
sI3351
g3191
sI3352
g3208
sI3353
g3210
sI3354
g3233
sI3355
g3247
sI3356
g4136
sI3357
g4151
sI3358
g3252
sI3359
g4160
sI3360
g3258
sI3361
g4218
sI3362
g3267
sI3363
g4269
sI3364
g3274
sI3365
g4401
sI3366
g4346
sI3367
g4357
sI3368
g3290
sI3369
g3297
sI3370
g3147
sI3371
g3302
sI3372
g3304
sI3373
g3305
sI3374
g3308
sI3375
g3309
sI3376
g2634
sI3377
g3323
sI3378
g3324
sI3379
g3325
sI3380
g3331
sI3381
g4666
sI3382
g3340
sI3383
g3342
sI3384
g3343
sI3385
g3346
sI3386
g3347
sI3387
g3350
sI3388
g3354
sI3389
g3359
sI3390
g3361
sI3391
g3364
sI3392
g3367
sI3393
g3370
sI3394
g3378
sI3395
g4999
sI3396
g712
sI3397
g3402
sI3398
g2734
sI3399
g3415
sI3400
g133
sI3401
g176
sI3402
g3425
sI3403
g4368
sI3404
g3427
sI3405
g234
sI3406
g2129
sI3407
g3440
sI3408
g3444
sI3409
g3454
sI3410
g3457
sI3411
g371
sI3412
g3464
sI3413
g410
sI3414
g482
sI3415
g3481
sI3416
g583
sI3417
g3492
sI3418
g3495
sI3419
g684
sI3420
g3503
sI3421
g4555
sI3422
g3512
sI3423
g3517
sI3424
g3525
sI3425
g3530
sI3426
g3534
sI3427
g3540
sI3428
g3546
sI3429
g3552
sI3430
g206
sI3431
g3555
sI3432
g3558
sI3433
g3901
sI3434
g4290
sI3435
g1045
sI3436
g1760
sI3437
g3574
sI3438
g314
sI3439
g3585
sI3440
g3591
sI3441
g3596
sI3442
g3598
sI3443
g3602
sI3444
g3608
sI3445
g3610
sI3446
g3614
sI3447
g795
sI3448
g3623
sI3449
g3628
sI3450
g3636
sI3451
g3642
sI3452
g3643
sI3453
g3647
sI3454
g3652
sI3455
g3660
sI3456
g3675
sI3457
g3676
sI3458
g3677
sI3459
g3680
sI3460
g3685
sI3461
g3692
sI3462
g3693
sI3463
g4362
sI3464
g3699
sI3465
g3700
sI3466
g3815
sI3467
g3703
sI3468
g3705
sI3469
g3714
sI3470
g2567
sI3471
g3724
sI3472
g3727
sI3473
g2004
sI3474
g2026
sI3475
g2103
sI3476
g3748
sI3477
g3752
sI3478
g3761
sI3479
g3765
sI3480
g3768
sI3481
g3771
sI3482
g3779
sI3483
g3780
sI3484
g2285
sI3485
g3789
sI3486
g3792
sI3487
g3798
sI3488
g3800
sI3489
g3805
sI3490
g3808
sI3491
g2446
sI3492
g3819
sI3493
g3823
sI3494
g3825
sI3495
g3827
sI3496
g4808
sI3497
g2539
sI3498
g3843
sI3499
g1379
sI3500
g4694
sI3501
g3852
sI3502
g3854
sI3503
g3858
sI3504
g3859
sI3505
g3864
sI3506
g3866
sI3507
g2713
sI3508
g3873
sI3509
g3882
sI3510
g2836
sI3511
g2427
sI3512
g3899
sI3513
g3903
sI3514
g3904
sI3515
g3907
sI3516
g4425
sI3517
g3914
sI3518
g3920
sI3519
g3923
sI3520
g3925
sI3521
g3929
sI3522
g3102
sI3523
g4638
sI3524
g3146
sI3525
g3950
sI3526
g3955
sI3527
g4570
sI3528
g3962
sI3529
g3303
sI3530
g3986
sI3531
g3450
sI3532
g3990
sI3533
g3193
sI3534
g3999
sI3535
g4000
sI3536
g4001
sI3537
g4006
sI3538
g4008
sI3539
g3576
sI3540
g4014
sI3541
g5084
sI3542
g4018
sI3543
g4019
sI3544
g3633
sI3545
g4024
sI3546
g4037
sI3547
g4038
sI3548
g4039
sI3549
g3731
sI3550
g3781
sI3551
g4049
sI3552
g4052
sI3553
g688
sI3554
g4057
sI3555
g4064
sI3556
g4070
sI3557
g4072
sI3558
g4075
sI3559
g4076
sI3560
g4081
sI3561
g1527
sI3562
g3012
sI3563
g4086
sI3564
g4091
sI3565
g4093
sI3566
g4097
sI3567
g1226
sI3568
g4120
sI3569
g4105
sI3570
g4111
sI3571
g4112
sI3572
g464
sI3573
g4234
sI3574
g4246
sI3575
g4130
sI3576
g4138
sI3577
g4384
sI3578
g4144
sI3579
g4148
sI3580
g4444
sI3581
g4157
sI3582
g4512
sI3583
g4162
sI3584
g261
sI3585
g4569
sI3586
g4173
sI3587
g4616
sI3588
g4178
sI3589
g4184
sI3590
g4203
sI3591
g4208
sI3592
g4837
sI3593
g476
sI3594
g4219
sI3595
g4222
sI3596
g4223
sI3597
g4230
sI3598
g4233
sI3599
g1069
sI3600
g473
sI3601
g4237
sI3602
g4238
sI3603
g4242
sI3604
g4247
sI3605
g4251
sI3606
g5090
sI3607
g4266
sI3608
g4267
sI3609
g2887
sI3610
g144
sI3611
g4276
sI3612
g4281
sI3613
g3244
sI3614
g1427
sI3615
g1414
sI3616
g4295
sI3617
g4314
sI3618
g4315
sI3619
g803
sI3620
g4323
sI3621
g4324
sI3622
g4325
sI3623
g4330
sI3624
g175
sI3625
g4337
sI3626
g4340
sI3627
g4344
sI3628
g4353
sI3629
g608
sI3630
g1475
sI3631
g4356
sI3632
g654
sI3633
g4363
sI3634
g4366
sI3635
g4373
sI3636
g741
sI3637
g802
sI3638
g4388
sI3639
g827
sI3640
g4394
sI3641
g4403
sI3642
g4404
sI3643
g4408
sI3644
g4413
sI3645
g4417
sI3646
g4418
sI3647
g4423
sI3648
g4426
sI3649
g4436
sI3650
g4437
sI3651
g4440
sI3652
g1125
sI3653
g1137
sI3654
g4447
sI3655
g4449
sI3656
g4450
sI3657
g4451
sI3658
g4452
sI3659
g1211
sI3660
g4460
sI3661
g1260
sI3662
g673
sI3663
g4475
sI3664
g4476
sI3665
g4487
sI3666
g1394
sI3667
g1401
sI3668
g4504
sI3669
g4544
sI3670
g4508
sI3671
g4519
sI3672
g1570
sI3673
g4532
sI3674
g4535
sI3675
g1658
sI3676
g4540
sI3677
g4545
sI3678
g2024
sI3679
g4550
sI3680
g4551
sI3681
g1810
sI3682
g4562
sI3683
g4563
sI3684
g4573
sI3685
g4577
sI3686
g4786
sI3687
g4590
sI3688
g4592
sI3689
g4599
sI3690
g2050
sI3691
g4602
sI3692
g4604
sI3693
g2101
sI3694
g4611
sI3695
g4621
sI3696
g4655
sI3697
g4665
sI3698
g4909
sI3699
g2435
sI3700
g4678
sI3701
g4686
sI3702
g4687
sI3703
g4688
sI3704
g4693
sI3705
g2577
sI3706
g4715
sI3707
g4719
sI3708
g4729
sI3709
g4734
sI3710
g4740
sI3711
g4742
sI3712
g2830
sI3713
g4746
sI3714
g4750
sI3715
g2365
sI3716
g4760
sI3717
g4761
sI3718
g2991
sI3719
g4768
sI3720
g4772
sI3721
g3068
sI3722
g4782
sI3723
g3098
sI3724
g4785
sI3725
g248
sI3726
g4790
sI3727
g4794
sI3728
g4798
sI3729
g4801
sI3730
g3223
sI3731
g4807
sI3732
g4809
sI3733
g3476
sI3734
g4817
sI3735
g4820
sI3736
g4835
sI3737
g4838
sI3738
g4843
sI3739
g4846
sI3740
g2272
sI3741
g98
sI3742
g4004
sI3743
g4855
sI3744
g4858
sI3745
g4859
sI3746
g3548
sI3747
g4863
sI3748
g3085
sI3749
g4880
sI3750
g4396
sI3751
g4888
sI3752
g4892
sI3753
g3784
sI3754
g4898
sI3755
g4913
sI3756
g4916
sI3757
g4917
sI3758
g3961
sI3759
g4920
sI3760
g4925
sI3761
g4927
sI3762
g4929
sI3763
g4032
sI3764
g767
sI3765
g4940
sI3766
g241
sI3767
g4950
sI3768
g4953
sI3769
g4955
sI3770
g4957
sI3771
g662
sI3772
g4968
sI3773
g4969
sI3774
g4970
sI3775
g4972
sI3776
g4303
sI3777
g4977
sI3778
g4983
sI3779
g4996
sI3780
g5001
sI3781
g5002
sI3782
g2459
sI3783
g5007
sI3784
g5009
sI3785
g5010
sI3786
g4559
sI3787
g5016
sI3788
g5020
sI3789
g5024
sI3790
g609
sI3791
g5034
sI3792
g785
sI3793
g4718
sI3794
g2011
sI3795
g5071
sI3796
g5072
sI3797
g5078
sI3798
g5080
sI3799
g4921
sI3800
g4936
sI3801
g5089
sI3802
g2512
sI3803
g5101
sI3804
g5105
sI3805
g1149
sI3806
g4166
sI3807
g5112
sI3808
g1807
sI3809
g47
sI3810
g3949
sI3811
g56
sI3812
g57
sI3813
g60
sI3814
g159
sI3815
g65
sI3816
g178
sI3817
g71
sI3818
g75
sI3819
g76
sI3820
g79
sI3821
g2190
sI3822
g3634
sI3823
g83
sI3824
g3195
sI3825
g99
sI3826
g100
sI3827
g111
sI3828
g474
sI3829
g479
sI3830
g124
sI3831
g125
sI3832
g1895
sI3833
g131
sI3834
g588
sI3835
g649
sI3836
g147
sI3837
g148
sI3838
g689
sI3839
g152
sI3840
g725
sI3841
g3868
sI3842
g157
sI3843
g164
sI3844
g848
sI3845
g806
sI3846
g2743
sI3847
g183
sI3848
g184
sI3849
g189
sI3850
g968
sI3851
g194
sI3852
g196
sI3853
g199
sI3854
g1058
sI3855
g212
sI3856
g230
sI3857
g231
sI3858
g1561
sI3859
g256
sI3860
g1361
sI3861
g262
sI3862
g1403
sI3863
g1440
sI3864
g274
sI3865
g280
sI3866
g281
sI3867
g285
sI3868
g287
sI3869
g289
sI3870
g1536
sI3871
g291
sI3872
g306
sI3873
g310
sI3874
g313
sI3875
g605
sI3876
g324
sI3877
g325
sI3878
g1759
sI3879
g330
sI3880
g2602
sI3881
g4738
sI3882
g341
sI3883
g343
sI3884
g345
sI3885
g347
sI3886
g352
sI3887
g353
sI3888
g359
sI3889
g1982
sI3890
g4589
sI3891
g3004
sI3892
g2042
sI3893
g374
sI3894
g376
sI3895
g377
sI3896
g1319
sI3897
g390
sI3898
g4420
sI3899
g406
sI3900
g2239
sI3901
g426
sI3902
g433
sI3903
g2433
sI3904
g438
sI3905
g445
sI3906
g2507
sI3907
g450
sI3908
g454
sI3909
g460
sI3910
g2590
sI3911
g462
sI3912
g2628
sI3913
g2647
sI3914
g470
sI3915
g472
sI3916
g3744
sI3917
g1986
sI3918
g489
sI3919
g2770
sI3920
g2077
sI3921
g496
sI3922
g504
sI3923
g512
sI3924
g3550
sI3925
g2928
sI3926
g2938
sI3927
g2990
sI3928
g4029
sI3929
g537
sI3930
g4062
sI3931
g542
sI3932
g3044
sI3933
g3075
sI3934
g553
sI3935
g3163
sI3936
g559
sI3937
g4383
sI3938
g3242
sI3939
g3268
sI3940
g1584
sI3941
g585
sI3942
g632
sI3943
g3360
sI3944
g3379
sI3945
g283
sI3946
g3401
sI3947
g3404
sI3948
g602
sI3949
g1038
sI3950
g3422
sI3951
g622
sI3952
g635
sI3953
g3635
sI3954
g647
sI3955
g3659
sI3956
g652
sI3957
g656
sI3958
g667
sI3959
g670
sI3960
g3814
sI3961
g679
sI3962
g682
sI3963
g685
sI3964
g3875
sI3965
g687
sI3966
g2140
sI3967
g692
sI3968
g700
sI3969
g702
sI3970
g703
sI3971
g706
sI3972
g710
sI3973
g383
sI3974
g4077
sI3975
g4103
sI3976
g3375
sI3977
g4147
sI3978
g1606
sI3979
g759
sI3980
g760
sI3981
g763
sI3982
g4896
sI3983
g4296
sI3984
g774
sI3985
g779
sI3986
g786
sI3987
g2818
sI3988
g790
sI3989
g792
sI3990
g793
sI3991
g4194
sI3992
g4499
sI3993
g4531
sI3994
g815
sI3995
g2333
sI3996
g4596
sI3997
g4613
sI3998
g1333
sI3999
g3089
sI4000
g830
sI4001
g831
sI4002
g833
sI4003
g834
sI4004
g841
sI4005
g4741
sI4006
g5100
sI4007
g849
sI4008
g1612
sI4009
g854
sI4010
g859
sI4011
g861
sI4012
g1707
sI4013
g866
sI4014
g868
sI4015
g872
sI4016
g4979
sI4017
g883
sI4018
g889
sI4019
g896
sI4020
g897
sI4021
g959
sI4022
g72
sI4023
g908
sI4024
g911
sI4025
g4722
sI4026
g915
sI4027
g917
sI4028
g919
sI4029
g2460
sI4030
g922
sI4031
g923
sI4032
g4015
sI4033
g210
sI4034
g933
sI4035
g936
sI4036
g937
sI4037
g1852
sI4038
g943
sI4039
g944
sI4040
g4409
sI4041
g351
sI4042
g954
sI4043
g2319
sI4044
g416
sI4045
g963
sI4046
g966
sI4047
g971
sI4048
g975
sI4049
g977
sI4050
g978
sI4051
g979
sI4052
g983
sI4053
g985
sI4054
g993
sI4055
g4143
sI4056
g998
sI4057
g1003
sI4058
g1012
sI4059
g3980
sI4060
g1017
sI4061
g1667
sI4062
g1026
sI4063
g788
sI4064
g2780
sI4065
g1034
sI4066
g1036
sI4067
g1041
sI4068
g1043
sI4069
g1047
sI4070
g1013
sI4071
g1055
sI4072
g1063
sI4073
g1068
sI4074
g1071
sI4075
g1294
sI4076
g1081
sI4077
g1085
sI4078
g3669
sI4079
g1098
sI4080
g1099
sI4081
g1100
sI4082
g1107
sI4083
g1111
sI4084
g1117
sI4085
g1119
sI4086
g1121
sI4087
g1123
sI4088
g1126
sI4089
g3116
sI4090
g1134
sI4091
g2580
sI4092
g1138
sI4093
g1140
sI4094
g1141
sI4095
g1144
sI4096
g1598
sI4097
g1152
sI4098
g1626
sI4099
g1155
sI4100
g2943
sI4101
g1162
sI4102
g653
sI4103
g1179
sI4104
g1818
sI4105
g1824
sI4106
g1194
sI4107
g835
sI4108
g1927
sI4109
g1932
sI4110
g1965
sI4111
g1422
sI4112
g1217
sI4113
g1218
sI4114
g4842
sI4115
g2045
sI4116
g2056
sI4117
g2066
sI4118
g1230
sI4119
g1234
sI4120
g1236
sI4121
g2113
sI4122
g4576
sI4123
g1241
sI4124
g1244
sI4125
g1245
sI4126
g1246
sI4127
g3271
sI4128
g3144
sI4129
g2234
sI4130
g2074
sI4131
g1263
sI4132
g1265
sI4133
g1275
sI4134
g1284
sI4135
g1286
sI4136
g1287
sI4137
g2423
sI4138
g2436
sI4139
g2454
sI4140
g2457
sI4141
g1306
sI4142
g1316
sI4143
g1317
sI4144
g1320
sI4145
g1325
sI4146
g2712
sI4147
g1337
sI4148
g2729
sI4149
g2732
sI4150
g1343
sI4151
g1344
sI4152
g2771
sI4153
g2776
sI4154
g2183
sI4155
g2808
sI4156
g2813
sI4157
g1360
sI4158
g3829
sI4159
g1364
sI4160
g2868
sI4161
g1377
sI4162
g3000
sI4163
g1391
sI4164
g309
sI4165
g1402
sI4166
g3156
sI4167
g1404
sI4168
g4962
sI4169
g3206
sI4170
g1413
sI4171
g3237
sI4172
g1553
sI4173
g3295
sI4174
g1429
sI4175
g1431
sI4176
g1435
sI4177
g4727
sI4178
g4349
sI4179
g1877
sI4180
g284
sI4181
g4060
sI4182
g3519
sI4183
g1473
sI4184
g1477
sI4185
g2193
sI4186
g4796
sI4187
g3667
sI4188
g1492
sI4189
g3791
sI4190
g1511
sI4191
g1513
sI4192
g3883
sI4193
g3358
sI4194
g1544
sI4195
g480
sI4196
g1539
sI4197
g1556
sI4198
g4101
sI4199
g4115
sI4200
g311
sI4201
g1574
sI4202
g4252
sI4203
g145
sI4204
g3368
sI4205
g1587
sI4206
g1592
sI4207
g1594
sI4208
g1597
sI4209
g4382
sI4210
g1603
sI4211
g1609
sI4212
g1610
sI4213
g1614
sI4214
g1617
sI4215
g4492
sI4216
g2670
sI4217
g1632
sI4218
g1535
sI4219
g2465
sI4220
g4594
sI4221
g4600
sI4222
g1649
sI4223
g1650
sI4224
g1659
sI4225
g4714
sI4226
g4758
sI4227
g1682
sI4228
g1168
sI4229
g202
sI4230
g4870
sI4231
g4893
sI4232
g1706
sI4233
g1714
sI4234
g1720
sI4235
g1723
sI4236
g1726
sI4237
g3742
sI4238
g1242
sI4239
g5094
sI4240
g1738
sI4241
g1744
sI4242
g93
sI4243
g2108
sI4244
g1750
sI4245
g114
sI4246
g135
sI4247
g138
sI4248
g2373
sI4249
g1768
sI4250
g1769
sI4251
g678
sI4252
g296
sI4253
g73
sI4254
g4268
sI4255
g370
sI4256
g388
sI4257
g1797
sI4258
g1756
sI4259
g1802
sI4260
g1806
sI4261
g4886
sI4262
g485
sI4263
g1773
sI4264
g1823
sI4265
g556
sI4266
g590
sI4267
g1837
sI4268
g2240
sI4269
g694
sI4270
g1851
sI4271
g2049
sI4272
g3583
sI4273
g3807
sI4274
g1929
sI4275
g1869
sI4276
g1879
sI4277
g1880
sI4278
g1881
sI4279
g1882
sI4280
g1887
sI4281
g1888
sI4282
g1891
sI4283
g1897
sI4284
g1900
sI4285
g1901
sI4286
g1904
sI4287
g1905
sI4288
g1906
sI4289
g1084
sI4290
g1129
sI4291
g3543
sI4292
g2408
sI4293
g1161
sI4294
g1925
sI4295
g783
sI4296
g1934
sI4297
g1279
sI4298
g1307
sI4299
g1419
sI4300
g1942
sI4301
g3042
sI4302
g1955
sI4303
g1961
sI4304
g2936
sI4305
g1520
sI4306
g1974
sI4307
g1588
sI4308
g1987
sI4309
g1992
sI4310
g2008
sI4311
g2018
sI4312
g2019
sI4313
g2604
sI4314
g1863
sI4315
g1866
sI4316
g2034
sI4317
g1903
sI4318
g2041
sI4319
g2044
sI4320
g68
sI4321
g2052
sI4322
g2054
sI4323
g2057
sI4324
g2022
sI4325
g4196
sI4326
g4702
sI4327
g1930
sI4328
g2075
sI4329
g486
sI4330
g2092
sI4331
g2969
sI4332
g2283
sI4333
g2287
sI4334
g2110
sI4335
g2111
sI4336
g2379
sI4337
g2126
sI4338
g2127
sI4339
g2130
sI4340
g2148
sI4341
g2150
sI4342
g2152
sI4343
g1368
sI4344
g2607
sI4345
g2630
sI4346
g2645
sI4347
g2169
sI4348
g2687
sI4349
g2758
sI4350
g2187
sI4351
g2188
sI4352
g2825
sI4353
g1467
sI4354
g2201
sI4355
g2204
sI4356
g2902
sI4357
g2206
sI4358
g2916
sI4359
g2951
sI4360
g2366
sI4361
g3002
sI4362
g3010
sI4363
g2224
sI4364
g4390
sI4365
g2232
sI4366
g3080
sI4367
g3286
sI4368
g1669
sI4369
g2256
sI4370
g2259
sI4371
g3260
sI4372
g3790
sI4373
g2437
sI4374
g2275
sI4375
g1648
sI4376
g2278
sI4377
g3351
sI4378
g2284
sI4379
g2288
sI4380
g3409
sI4381
g3413
sI4382
g3424
sI4383
g3489
sI4384
g4124
sI4385
g2308
sI4386
g3551
sI4387
g3566
sI4388
g2322
sI4389
g2326
sI4390
g3645
sI4391
g2332
sI4392
g2334
sI4393
g2335
sI4394
g531
sI4395
g2919
sI4396
g2350
sI4397
g3821
sI4398
g2355
sI4399
g2356
sI4400
g3876
sI4401
g3902
sI4402
g2367
sI4403
g2369
sI4404
g3860
sI4405
g960
sI4406
g2533
sI4407
g4834
sI4408
g2081
sI4409
g1399
sI4410
g4119
sI4411
g2397
sI4412
g2012
sI4413
g2400
sI4414
g4169
sI4415
g4186
sI4416
g4190
sI4417
g2410
sI4418
g4229
sI4419
g2420
sI4420
g4696
sI4421
g2428
sI4422
g2439
sI4423
g2440
sI4424
g2445
sI4425
g2458
sI4426
g2471
sI4427
g4458
sI4428
g2474
sI4429
g2476
sI4430
g4650
sI4431
g4674
sI4432
g2487
sI4433
g2489
sI4434
g2492
sI4435
g4795
sI4436
g2502
sI4437
g2858
sI4438
g4869
sI4439
g2513
sI4440
g2873
sI4441
g2519
sI4442
g2520
sI4443
g2523
sI4444
g2532
sI4445
g2536
sI4446
g5021
sI4447
g2549
sI4448
g4227
sI4449
g2558
sI4450
g676
sI4451
g91
sI4452
g2570
sI4453
g122
sI4454
g1680
sI4455
g151
sI4456
g2581
sI4457
g2591
sI4458
g2592
sI4459
g2595
sI4460
g273
sI4461
g2601
sI4462
g316
sI4463
g2610
sI4464
g2621
sI4465
g2622
sI4466
g3062
sI4467
g466
sI4468
g495
sI4469
g2642
sI4470
g4769
sI4471
g580
sI4472
g584
sI4473
g2866
sI4474
g639
sI4475
g2658
sI4476
g1341
sI4477
g2661
sI4478
g2664
sI4479
g1496
sI4480
g2680
sI4481
g845
sI4482
g4721
sI4483
g876
sI4484
g2695
sI4485
g2702
sI4486
g2709
sI4487
g898
sI4488
g2716
sI4489
g2717
sI4490
g2719
sI4491
g2724
sI4492
g1945
sI4493
g1094
sI4494
g2733
sI4495
g3541
sI4496
g2741
sI4497
g1188
sI4498
g1193
sI4499
g4567
sI4500
g3474
sI4501
g2762
sI4502
g2765
sI4503
g2768
sI4504
g2775
sI4505
g2779
sI4506
g2783
sI4507
g2791
sI4508
g2795
sI4509
g2802
sI4510
g1573
sI4511
g2814
sI4512
g2824
sI4513
g1967
sI4514
g2839
sI4515
g2843
sI4516
g1981
sI4517
g2856
sI4518
g3442
sI4519
g3569
sI4520
g1966
sI4521
g2890
sI4522
g2035
sI4523
g467
sI4524
g2899
sI4525
g2105
sI4526
g3105
sI4527
g2921
sI4528
g2923
sI4529
g882
sI4530
g2294
sI4531
g3158
sI4532
g2947
sI4533
g2950
sI4534
g2956
sI4535
g2488
sI4536
g2503
sI4537
g2480
sI4538
g251
sI4539
g2983
sI4540
g2995
sI4541
g2654
sI4542
g2605
sI4543
g3006
sI4544
g1521
sI4545
g3029
sI4546
g3032
sI4547
g3406
sI4548
g2896
sI4549
g3035
sI4550
g2600
sI4551
g2922
sI4552
g3051
sI4553
g2994
sI4554
g3065
sI4555
g563
sI4556
g3987
sI4557
g453
sI4558
g3168
sI4559
g3194
sI4560
g3086
sI4561
g3254
sI4562
g1670
sI4563
g3292
sI4564
g1345
sI4565
g5061
sI4566
g3104
sI4567
g3108
sI4568
g3123
sI4569
g3124
sI4570
g3452
sI4571
g3128
sI4572
g3477
sI4573
g3498
sI4574
g4581
sI4575
g4376
sI4576
g3148
sI4577
g3161
sI4578
g3640
sI4579
g3167
sI4580
g3169
sI4581
g3170
sI4582
g3175
sI4583
g3182
sI4584
g3189
sI4585
g3809
sI4586
g3199
sI4587
g3203
sI4588
g3204
sI4589
g3908
sI4590
g3934
sI4591
g3211
sI4592
g3952
sI4593
g3215
sI4594
g5074
sI4595
g3219
sI4596
g3221
sI4597
g2690
sI4598
g3229
sI4599
g3232
sI4600
g3235
sI4601
g3239
sI4602
g3240
sI4603
g3241
sI4604
g1269
sI4605
g4528
sI4606
g3265
sI4607
g2419
sI4608
g2785
sI4609
g4308
sI4610
g3282
sI4611
g3284
sI4612
g3288
sI4613
g4371
sI4614
g3299
sI4615
g4434
sI4616
g3311
sI4617
g4479
sI4618
g3315
sI4619
g4561
sI4620
g4257
sI4621
g3326
sI4622
g3333
sI4623
g3339
sI4624
g1933
sI4625
g3348
sI4626
g4824
sI4627
g1732
sI4628
g3363
sI4629
g750
sI4630
g1059
sI4631
g2451
sI4632
g5025
sI4633
g3389
sI4634
g3391
sI4635
g3392
sI4636
g3395
sI4637
g3396
sI4638
g3397
sI4639
g5088
sI4640
g3399
sI4641
g3226
sI4642
g3273
sI4643
g4595
sI4644
g4848
sI4645
g1745
sI4646
g3421
sI4647
g179
sI4648
g3663
sI4649
g3429
sI4650
g3431
sI4651
g3436
sI4652
g3439
sI4653
g1216
sI4654
g3448
sI4655
g3451
sI4656
g3459
sI4657
g2389
sI4658
g3479
sI4659
g3488
sI4660
g3491
sI4661
g3497
sI4662
g4875
sI4663
g459
sI4664
g754
sI4665
g3568
sI4666
g784
sI4667
g4028
sI4668
g2540
sI4669
g1054
sI4670
g3544
sI4671
g930
sI4672
g1001
sI4673
g3557
sI4674
g1057
sI4675
g4457
sI4676
g1093
sI4677
g3578
sI4678
g3466
sI4679
g3589
sI4680
g3594
sI4681
g4819
sI4682
g3601
sI4683
g3605
sI4684
g5017
sI4685
g3607
sI4686
g1322
sI4687
g2016
sI4688
g3615
sI4689
g2144
sI4690
g3619
sI4691
g3622
sI4692
g3624
sI4693
g1108
sI4694
g1681
sI4695
g3650
sI4696
g3653
sI4697
g3654
sI4698
g3655
sI4699
g1571
sI4700
g3671
sI4701
g3679
sI4702
g838
sI4703
g3697
sI4704
g1867
sI4705
g3717
sI4706
g3723
sI4707
g3689
sI4708
g3729
sI4709
g3735
sI4710
g3737
sI4711
g2059
sI4712
g2692
sI4713
g3753
sI4714
g2149
sI4715
g3760
sI4716
g3773
sI4717
g3776
sI4718
g3777
sI4719
g3787
sI4720
g3788
sI4721
g3794
sI4722
g3524
sI4723
g2380
sI4724
g4193
sI4725
g3804
sI4726
g3811
sI4727
g2528
sI4728
g565
sI4729
g3816
sI4730
g3817
sI4731
g3820
sI4732
g3828
sI4733
g2518
sI4734
g3838
sI4735
g2574
sI4736
g1529
sI4737
g3846
sI4738
g3849
sI4739
g3853
sI4740
g2885
sI4741
g3861
sI4742
g4291
sI4743
g3076
sI4744
g655
sI4745
g59
sI4746
g3886
sI4747
g3887
sI4748
g3470
sI4749
g4472
sI4750
g3906
sI4751
g2796
sI4752
g3916
sI4753
g3014
sI4754
g4529
sI4755
g3922
sI4756
g3061
sI4757
g3931
sI4758
g3932
sI4759
g3099
sI4760
g3710
sI4761
g3127
sI4762
g4578
sI4763
g3216
sI4764
g298
sI4765
g3958
sI4766
g992
sI4767
g4197
sI4768
g3965
sI4769
g3970
sI4770
g3973
sI4771
g3335
sI4772
g3978
sI4773
g3979
sI4774
g3385
sI4775
g3985
sI4776
g2414
sI4777
g3988
sI4778
g87
sI4779
g3995
sI4780
g3996
sI4781
g3998
sI4782
g2000
sI4783
g4002
sI4784
g4005
sI4785
g4010
sI4786
g4011
sI4787
g223
sI4788
g4025
sI4789
g3651
sI4790
g4876
sI4791
g4585
sI4792
g3728
sI4793
g4051
sI4794
g4056
sI4795
g4058
sI4796
g3896
sI4797
g4066
sI4798
g4067
sI4799
g4958
sI4800
g4078
sI4801
g4084
sI4802
g981
sI4803
g4089
sI4804
g3453
sI4805
g4095
sI4806
g4161
sI4807
g4106
sI4808
g4109
sI4809
g4179
sI4810
g4114
sI4811
g3586
sI4812
g4300
sI4813
g4129
sI4814
g4133
sI4815
g4361
sI4816
g2064
sI4817
g4140
sI4818
g4153
sI4819
g4155
sI4820
g4164
sI4821
g4558
sI4822
g3826
sI4823
g4172
sI4824
g4174
sI4825
g4429
sI4826
g4180
sI4827
g4673
sI4828
g4191
sI4829
g4735
sI4830
g4739
sI4831
g4198
sI4832
g4762
sI4833
g4279
sI4834
g4201
sI4835
g4209
sI4836
g4292
sI4837
g4212
sI4838
g4214
sI4839
g4723
sI4840
g4998
sI4841
g5003
sI4842
g4254
sI4843
g4256
sI4844
g3386
sI4845
g1019
sI4846
g701
sI4847
g4284
sI4848
g3500
sI4849
g4311
sI4850
g1782
sI4851
g4317
sI4852
g2955
sI4853
g4332
sI4854
g4333
sI4855
g4341
sI4856
g4350
sI4857
g633
sI4858
g4359
sI4859
g3202
sI4860
g765
sI4861
g4365
sI4862
g4367
sI4863
g4370
sI4864
g4372
sI4865
g711
sI4866
g716
sI4867
g4381
sI4868
g4156
sI4869
g3052
sI4870
g850
sI4871
g4322
sI4872
g3145
sI4873
g4406
sI4874
g4411
sI4875
g4412
sI4876
g4415
sI4877
g2151
sI4878
g4422
sI4879
g4428
sI4880
g4022
sI4881
g4432
sI4882
g1049
sI4883
g4435
sI4884
g1114
sI4885
g4443
sI4886
g2417
sI4887
g1221
sI4888
g1090
sI4889
g4465
sI4890
g4305
sI4891
g1293
sI4892
g4470
sI4893
g4277
sI4894
g1342
sI4895
g1300
sI4896
g4485
sI4897
g4497
sI4898
g4498
sI4899
g4503
sI4900
g2072
sI4901
g1483
sI4902
g4514
sI4903
g4522
sI4904
g4525
sI4905
g4536
sI4906
g4539
sI4907
g4542
sI4908
g1705
sI4909
g4548
sI4910
g4549
sI4911
g4554
sI4912
g1789
sI4913
g2029
sI4914
g4564
sI4915
g4565
sI4916
g1885
sI4917
g1892
sI4918
g4574
sI4919
g4575
sI4920
g4579
sI4921
g4584
sI4922
g1369
sI4923
g2349
sI4924
g1005
sI4925
g4606
sI4926
g2093
sI4927
g4608
sI4928
g4610
sI4929
g4614
sI4930
g2146
sI4931
g4622
sI4932
g4625
sI4933
g4628
sI4934
g4631
sI4935
g4635
sI4936
g1349
sI4937
g4639
sI4938
g4641
sI4939
g4181
sI4940
g4660
sI4941
g1628
sI4942
g4662
sI4943
g2403
sI4944
g3046
sI4945
g5041
sI4946
g4676
sI4947
g4299
sI4948
g4679
sI4949
g4680
sI4950
g4249
sI4951
g4683
sI4952
g1163
sI4953
g4689
sI4954
g4690
sI4955
g4692
sI4956
g4697
sI4957
g2618
sI4958
g4705
sI4959
g4708
sI4960
g4709
sI4961
g2665
sI4962
g3133
sI4963
g2715
sI4964
g4725
sI4965
g4726
sI4966
g4728
sI4967
g4733
sI4968
g2761
sI4969
g1799
sI4970
g4743
sI4971
g938
sI4972
g4793
sI4973
g4747
sI4974
g3048
sI4975
g2048
sI4976
g2926
sI4977
g2003
sI4978
g4764
sI4979
g3251
sI4980
g339
sI4981
g1775
sI4982
g4776
sI4983
g5075
sI4984
g2246
sI4985
g3536
sI4986
g113
sI4987
g4804
sI4988
g4811
sI4989
g4815
sI4990
g1397
sI4991
g2689
sI4992
g4265
sI4993
g4826
sI4994
g3380
sI4995
g4833
sI4996
g4839
sI4997
g3469
sI4998
g1461
sI4999
g4850
sI5000
g4981
sI5001
g4853
sI5002
g3521
sI5003
g4759
sI5004
g4864
sI5005
g1962
sI5006
g1056
sI5007
g4883
sI5008
g4183
sI5009
g4899
sI5010
g4910
sI5011
g4911
sI5012
g4919
sI5013
g4922
sI5014
g2043
sI5015
g4926
sI5016
g4928
sI5017
g4932
sI5018
g1630
sI5019
g2014
sI5020
g4945
sI5021
g3441
sI5022
g4171
sI5023
g4951
sI5024
g4226
sI5025
g4954
sI5026
g4956
sI5027
g4992
sI5028
g2265
sI5029
g4976
sI5030
g4984
sI5031
g4985
sI5032
g4988
sI5033
g4993
sI5034
g3205
sI5035
g1583
sI5036
g3603
sI5037
g4915
sI5038
g5019
sI5039
g3786
sI5040
g5027
sI5041
g3164
sI5042
g5031
sI5043
g4468
sI5044
g1392
sI5045
g5038
sI5046
g5044
sI5047
g5048
sI5048
g5053
sI5049
g5056
sI5050
g5059
sI5051
g4897
sI5052
g1087
sI5053
g5063
sI5054
g4867
sI5055
g5070
sI5056
g5073
sI5057
g5076
sI5058
g4903
sI5059
g4908
sI5060
g4914
sI5061
g4947
sI5062
g808
sI5063
g4982
sI5064
g5095
sI5065
g5098
sI5066
g1095
sI5067
g2321
sI5068
g5062
sI5069
g5077
sI5070
g5109
sI5071
g5111
stp5116
.